{
 "array_types" :
 [
  {
   "alignment" : 4,
   "linker_set_key" : "_ZTIA0_i",
   "name" : "int[0]",
   "referenced_type" : "_ZTIi",
   "source_file" : "system/core/libcutils/include_outside_system/cutils/native_handle.h"
  },
  {
   "alignment" : 2,
   "linker_set_key" : "_ZTIA1_Ds",
   "name" : "char16_t[1]",
   "referenced_type" : "_ZTIDs",
   "size" : 2,
   "source_file" : "system/core/libutils/binder/include/utils/String16.h"
  },
  {
   "alignment" : 1,
   "linker_set_key" : "_ZTIA20_c",
   "name" : "char[20]",
   "referenced_type" : "_ZTIc",
   "size" : 20,
   "source_file" : "system/core/libutils/include/utils/Printer.h"
  },
  {
   "alignment" : 1,
   "linker_set_key" : "_ZTIA5121_h",
   "name" : "unsigned char[5121]",
   "referenced_type" : "_ZTIh",
   "size" : 5121,
   "source_file" : "system/logging/liblog/include_vndk/log/log_read.h"
  },
  {
   "alignment" : 4,
   "linker_set_key" : "_ZTIA8_j",
   "name" : "unsigned int[8]",
   "referenced_type" : "_ZTIj",
   "size" : 32,
   "source_file" : "system/core/libsystem/include/system/graphics.h"
  },
  {
   "is_of_unknown_bound" : true,
   "linker_set_key" : "_ZTIA_f",
   "name" : "float[]",
   "referenced_type" : "_ZTIf",
   "source_file" : "system/core/libsystem/include/system/graphics.h"
  }
 ],
 "builtin_types" :
 [
  {
   "alignment" : 4,
   "is_integral" : true,
   "is_unsigned" : true,
   "linker_set_key" : "_ZTIDi",
   "name" : "char32_t",
   "size" : 4
  },
  {
   "alignment" : 8,
   "linker_set_key" : "_ZTIDn",
   "name" : "std::nullptr_t",
   "size" : 8
  },
  {
   "alignment" : 2,
   "is_integral" : true,
   "is_unsigned" : true,
   "linker_set_key" : "_ZTIDs",
   "name" : "char16_t",
   "size" : 2
  },
  {
   "alignment" : 1,
   "is_integral" : true,
   "linker_set_key" : "_ZTIa",
   "name" : "signed char",
   "size" : 1
  },
  {
   "alignment" : 1,
   "is_integral" : true,
   "is_unsigned" : true,
   "linker_set_key" : "_ZTIb",
   "name" : "bool",
   "size" : 1
  },
  {
   "alignment" : 1,
   "is_integral" : true,
   "is_unsigned" : true,
   "linker_set_key" : "_ZTIc",
   "name" : "char",
   "size" : 1
  },
  {
   "alignment" : 8,
   "linker_set_key" : "_ZTId",
   "name" : "double",
   "size" : 8
  },
  {
   "alignment" : 4,
   "linker_set_key" : "_ZTIf",
   "name" : "float",
   "size" : 4
  },
  {
   "alignment" : 1,
   "is_integral" : true,
   "is_unsigned" : true,
   "linker_set_key" : "_ZTIh",
   "name" : "unsigned char",
   "size" : 1
  },
  {
   "alignment" : 4,
   "is_integral" : true,
   "linker_set_key" : "_ZTIi",
   "name" : "int",
   "size" : 4
  },
  {
   "alignment" : 4,
   "is_integral" : true,
   "is_unsigned" : true,
   "linker_set_key" : "_ZTIj",
   "name" : "unsigned int",
   "size" : 4
  },
  {
   "alignment" : 8,
   "is_integral" : true,
   "linker_set_key" : "_ZTIl",
   "name" : "long",
   "size" : 8
  },
  {
   "alignment" : 8,
   "is_integral" : true,
   "is_unsigned" : true,
   "linker_set_key" : "_ZTIm",
   "name" : "unsigned long",
   "size" : 8
  },
  {
   "alignment" : 2,
   "is_integral" : true,
   "linker_set_key" : "_ZTIs",
   "name" : "short",
   "size" : 2
  },
  {
   "alignment" : 2,
   "is_integral" : true,
   "is_unsigned" : true,
   "linker_set_key" : "_ZTIt",
   "name" : "unsigned short",
   "size" : 2
  },
  {
   "linker_set_key" : "_ZTIv",
   "name" : "void"
  },
  {
   "alignment" : 8,
   "is_integral" : true,
   "linker_set_key" : "_ZTIx",
   "name" : "long long",
   "size" : 8
  },
  {
   "alignment" : 8,
   "is_integral" : true,
   "is_unsigned" : true,
   "linker_set_key" : "_ZTIy",
   "name" : "unsigned long long",
   "size" : 8
  }
 ],
 "elf_functions" :
 [
  {
   "name" : "_Z24androidCreateThreadGetIDPFiPvES_PS_"
  },
  {
   "name" : "_ZN7android10LogPrinter8printRawEPKc"
  },
  {
   "name" : "_ZN7android10LogPrinter9printLineEPKc"
  },
  {
   "name" : "_ZN7android10LogPrinterC1EPKc19android_LogPriorityS2_b"
  },
  {
   "name" : "_ZN7android10LogPrinterC2EPKc19android_LogPriorityS2_b"
  },
  {
   "name" : "_ZN7android10VectorImpl11appendArrayEPKvm"
  },
  {
   "name" : "_ZN7android10VectorImpl11setCapacityEm"
  },
  {
   "name" : "_ZN7android10VectorImpl12appendVectorERKS0_"
  },
  {
   "name" : "_ZN7android10VectorImpl13editArrayImplEv"
  },
  {
   "name" : "_ZN7android10VectorImpl13finish_vectorEv"
  },
  {
   "name" : "_ZN7android10VectorImpl13insertArrayAtEPKvmm"
  },
  {
   "name" : "_ZN7android10VectorImpl13removeItemsAtEmm"
  },
  {
   "name" : "_ZN7android10VectorImpl14insertVectorAtERKS0_m"
  },
  {
   "name" : "_ZN7android10VectorImpl15release_storageEv"
  },
  {
   "name" : "_ZN7android10VectorImpl16editItemLocationEm"
  },
  {
   "name" : "_ZN7android10VectorImpl3addEPKv"
  },
  {
   "name" : "_ZN7android10VectorImpl3addEv"
  },
  {
   "name" : "_ZN7android10VectorImpl3popEv"
  },
  {
   "name" : "_ZN7android10VectorImpl4pushEPKv"
  },
  {
   "name" : "_ZN7android10VectorImpl4pushEv"
  },
  {
   "name" : "_ZN7android10VectorImpl4sortEPFiPKvS2_E"
  },
  {
   "name" : "_ZN7android10VectorImpl4sortEPFiPKvS2_PvES3_"
  },
  {
   "name" : "_ZN7android10VectorImpl5_growEmm"
  },
  {
   "name" : "_ZN7android10VectorImpl5clearEv"
  },
  {
   "name" : "_ZN7android10VectorImpl6resizeEm"
  },
  {
   "name" : "_ZN7android10VectorImpl7_shrinkEmm"
  },
  {
   "name" : "_ZN7android10VectorImpl8insertAtEPKvmm"
  },
  {
   "name" : "_ZN7android10VectorImpl8insertAtEmm"
  },
  {
   "name" : "_ZN7android10VectorImpl9replaceAtEPKvm"
  },
  {
   "name" : "_ZN7android10VectorImpl9replaceAtEm"
  },
  {
   "name" : "_ZN7android10VectorImplC2ERKS0_"
  },
  {
   "name" : "_ZN7android10VectorImplC2Emj"
  },
  {
   "name" : "_ZN7android10VectorImplD0Ev"
  },
  {
   "name" : "_ZN7android10VectorImplD1Ev"
  },
  {
   "name" : "_ZN7android10VectorImplD2Ev"
  },
  {
   "name" : "_ZN7android10VectorImplaSERKS0_"
  },
  {
   "name" : "_ZN7android11uptimeNanosEv"
  },
  {
   "name" : "_ZN7android12NativeHandle6createEP13native_handleb"
  },
  {
   "name" : "_ZN7android12NativeHandleC1EP13native_handleb"
  },
  {
   "name" : "_ZN7android12NativeHandleC2EP13native_handleb"
  },
  {
   "name" : "_ZN7android12NativeHandleD1Ev"
  },
  {
   "name" : "_ZN7android12NativeHandleD2Ev"
  },
  {
   "name" : "_ZN7android12SharedBuffer5allocEm"
  },
  {
   "name" : "_ZN7android12SharedBuffer7deallocEPKS0_"
  },
  {
   "name" : "_ZN7android12uptimeMillisEv"
  },
  {
   "name" : "_ZN7android13PrefixPrinter9printLineEPKc"
  },
  {
   "name" : "_ZN7android13PrefixPrinterC1ERNS_7PrinterEPKc"
  },
  {
   "name" : "_ZN7android13PrefixPrinterC2ERNS_7PrinterEPKc"
  },
  {
   "name" : "_ZN7android14LooperCallbackD0Ev"
  },
  {
   "name" : "_ZN7android14LooperCallbackD1Ev"
  },
  {
   "name" : "_ZN7android14LooperCallbackD2Ev"
  },
  {
   "name" : "_ZN7android14MessageHandlerD0Ev"
  },
  {
   "name" : "_ZN7android14MessageHandlerD1Ev"
  },
  {
   "name" : "_ZN7android14MessageHandlerD2Ev"
  },
  {
   "name" : "_ZN7android14String8Printer9printLineEPKc"
  },
  {
   "name" : "_ZN7android14String8PrinterC1EPNS_7String8EPKc"
  },
  {
   "name" : "_ZN7android14String8PrinterC2EPNS_7String8EPKc"
  },
  {
   "name" : "_ZN7android14sp_report_raceEv"
  },
  {
   "name" : "_ZN7android14statusToStringEi"
  },
  {
   "name" : "_ZN7android15elapsedRealtimeEv"
  },
  {
   "name" : "_ZN7android16SortedVectorImpl3addEPKv"
  },
  {
   "name" : "_ZN7android16SortedVectorImpl5mergeERKNS_10VectorImplE"
  },
  {
   "name" : "_ZN7android16SortedVectorImpl5mergeERKS0_"
  },
  {
   "name" : "_ZN7android16SortedVectorImpl6removeEPKv"
  },
  {
   "name" : "_ZN7android16SortedVectorImplC2ERKNS_10VectorImplE"
  },
  {
   "name" : "_ZN7android16SortedVectorImplC2Emj"
  },
  {
   "name" : "_ZN7android16SortedVectorImplD0Ev"
  },
  {
   "name" : "_ZN7android16SortedVectorImplD1Ev"
  },
  {
   "name" : "_ZN7android16SortedVectorImplD2Ev"
  },
  {
   "name" : "_ZN7android16SortedVectorImplaSERKS0_"
  },
  {
   "name" : "_ZN7android17JenkinsHashWhitenEj"
  },
  {
   "name" : "_ZN7android18WeakMessageHandler13handleMessageERKNS_7MessageE"
  },
  {
   "name" : "_ZN7android18WeakMessageHandlerC1ERKNS_2wpINS_14MessageHandlerEEE"
  },
  {
   "name" : "_ZN7android18WeakMessageHandlerC2ERKNS_2wpINS_14MessageHandlerEEE"
  },
  {
   "name" : "_ZN7android18WeakMessageHandlerD0Ev"
  },
  {
   "name" : "_ZN7android18WeakMessageHandlerD1Ev"
  },
  {
   "name" : "_ZN7android18WeakMessageHandlerD2Ev"
  },
  {
   "name" : "_ZN7android19JenkinsHashMixBytesEjPKhm"
  },
  {
   "name" : "_ZN7android19elapsedRealtimeNanoEv"
  },
  {
   "name" : "_ZN7android20JenkinsHashMixShortsEjPKtm"
  },
  {
   "name" : "_ZN7android20SimpleLooperCallback11handleEventEiiPv"
  },
  {
   "name" : "_ZN7android20SimpleLooperCallbackC1EPFiiiPvE"
  },
  {
   "name" : "_ZN7android20SimpleLooperCallbackC2EPFiiiPvE"
  },
  {
   "name" : "_ZN7android20SimpleLooperCallbackD0Ev"
  },
  {
   "name" : "_ZN7android20SimpleLooperCallbackD1Ev"
  },
  {
   "name" : "_ZN7android20SimpleLooperCallbackD2Ev"
  },
  {
   "name" : "_ZN7android21report_sysprop_changeEv"
  },
  {
   "name" : "_ZN7android23sp_report_stack_pointerEv"
  },
  {
   "name" : "_ZN7android27add_sysprop_change_callbackEPFvvEi"
  },
  {
   "name" : "_ZN7android30get_report_sysprop_change_funcEv"
  },
  {
   "name" : "_ZN7android47LightRefBase_reportIncStrongRequireStrongFailedEPKv"
  },
  {
   "name" : "_ZN7android6Looper11sendMessageERKNS_2spINS_14MessageHandlerEEERKNS_7MessageE"
  },
  {
   "name" : "_ZN7android6Looper12getForThreadEv"
  },
  {
   "name" : "_ZN7android6Looper12setForThreadERKNS_2spIS0_EE"
  },
  {
   "name" : "_ZN7android6Looper14removeMessagesERKNS_2spINS_14MessageHandlerEEE"
  },
  {
   "name" : "_ZN7android6Looper14removeMessagesERKNS_2spINS_14MessageHandlerEEEi"
  },
  {
   "name" : "_ZN7android6Looper15getFdStateDebugEiPiS1_PNS_2spINS_14LooperCallbackEEEPPv"
  },
  {
   "name" : "_ZN7android6Looper17sendMessageAtTimeElRKNS_2spINS_14MessageHandlerEEERKNS_7MessageE"
  },
  {
   "name" : "_ZN7android6Looper18rebuildEpollLockedEv"
  },
  {
   "name" : "_ZN7android6Looper18sendMessageDelayedElRKNS_2spINS_14MessageHandlerEEERKNS_7MessageE"
  },
  {
   "name" : "_ZN7android6Looper26removeSequenceNumberLockedEm"
  },
  {
   "name" : "_ZN7android6Looper26scheduleEpollRebuildLockedEv"
  },
  {
   "name" : "_ZN7android6Looper4wakeEv"
  },
  {
   "name" : "_ZN7android6Looper5addFdEiiiPFiiiPvES1_"
  },
  {
   "name" : "_ZN7android6Looper5addFdEiiiRKNS_2spINS_14LooperCallbackEEEPv"
  },
  {
   "name" : "_ZN7android6Looper6awokenEv"
  },
  {
   "name" : "_ZN7android6Looper6repollEi"
  },
  {
   "name" : "_ZN7android6Looper7pollAllEiPiS1_PPv"
  },
  {
   "name" : "_ZN7android6Looper7prepareEi"
  },
  {
   "name" : "_ZN7android6Looper8pollOnceEiPiS1_PPv"
  },
  {
   "name" : "_ZN7android6Looper8removeFdEi"
  },
  {
   "name" : "_ZN7android6Looper9pollInnerEi"
  },
  {
   "name" : "_ZN7android6LooperC1Eb"
  },
  {
   "name" : "_ZN7android6LooperC2Eb"
  },
  {
   "name" : "_ZN7android6LooperD0Ev"
  },
  {
   "name" : "_ZN7android6LooperD1Ev"
  },
  {
   "name" : "_ZN7android6LooperD2Ev"
  },
  {
   "name" : "_ZN7android6Thread10readyToRunEv"
  },
  {
   "name" : "_ZN7android6Thread11_threadLoopEPv"
  },
  {
   "name" : "_ZN7android6Thread11requestExitEv"
  },
  {
   "name" : "_ZN7android6Thread18requestExitAndWaitEv"
  },
  {
   "name" : "_ZN7android6Thread3runEPKcim"
  },
  {
   "name" : "_ZN7android6Thread4joinEv"
  },
  {
   "name" : "_ZN7android6ThreadC2Eb"
  },
  {
   "name" : "_ZN7android6ThreadD0Ev"
  },
  {
   "name" : "_ZN7android6ThreadD1Ev"
  },
  {
   "name" : "_ZN7android6ThreadD2Ev"
  },
  {
   "name" : "_ZN7android7FileMap6adviseENS0_9MapAdviceE"
  },
  {
   "name" : "_ZN7android7FileMap6createEPKcilmb"
  },
  {
   "name" : "_ZN7android7FileMapC1EOS0_"
  },
  {
   "name" : "_ZN7android7FileMapC1Ev"
  },
  {
   "name" : "_ZN7android7FileMapC2EOS0_"
  },
  {
   "name" : "_ZN7android7FileMapC2Ev"
  },
  {
   "name" : "_ZN7android7FileMapD1Ev"
  },
  {
   "name" : "_ZN7android7FileMapD2Ev"
  },
  {
   "name" : "_ZN7android7FileMapaSEOS0_"
  },
  {
   "name" : "_ZN7android7Printer15printFormatLineEPKcz"
  },
  {
   "name" : "_ZN7android7PrinterC2Ev"
  },
  {
   "name" : "_ZN7android7PrinterD0Ev"
  },
  {
   "name" : "_ZN7android7PrinterD1Ev"
  },
  {
   "name" : "_ZN7android7PrinterD2Ev"
  },
  {
   "name" : "_ZN7android7RefBase10onFirstRefEv"
  },
  {
   "name" : "_ZN7android7RefBase10renameRefsEmRKNS_16ReferenceRenamerE"
  },
  {
   "name" : "_ZN7android7RefBase11renameRefIdEPNS0_12weakref_typeEPKvS4_"
  },
  {
   "name" : "_ZN7android7RefBase11renameRefIdEPS0_PKvS3_"
  },
  {
   "name" : "_ZN7android7RefBase12weakref_type14attemptIncWeakEPKv"
  },
  {
   "name" : "_ZN7android7RefBase12weakref_type16attemptIncStrongEPKv"
  },
  {
   "name" : "_ZN7android7RefBase12weakref_type18incWeakRequireWeakEPKv"
  },
  {
   "name" : "_ZN7android7RefBase12weakref_type7decWeakEPKv"
  },
  {
   "name" : "_ZN7android7RefBase12weakref_type7incWeakEPKv"
  },
  {
   "name" : "_ZN7android7RefBase12weakref_type7trackMeEbb"
  },
  {
   "name" : "_ZN7android7RefBase13onLastWeakRefEPKv"
  },
  {
   "name" : "_ZN7android7RefBase15onLastStrongRefEPKv"
  },
  {
   "name" : "_ZN7android7RefBase20extendObjectLifetimeEi"
  },
  {
   "name" : "_ZN7android7RefBase20onIncStrongAttemptedEjPKv"
  },
  {
   "name" : "_ZN7android7RefBaseC1Ev"
  },
  {
   "name" : "_ZN7android7RefBaseC2Ev"
  },
  {
   "name" : "_ZN7android7RefBaseD0Ev"
  },
  {
   "name" : "_ZN7android7RefBaseD1Ev"
  },
  {
   "name" : "_ZN7android7RefBaseD2Ev"
  },
  {
   "name" : "_ZN7android7String810lockBufferEm"
  },
  {
   "name" : "_ZN7android7String811real_appendEPKcm"
  },
  {
   "name" : "_ZN7android7String812appendFormatEPKcz"
  },
  {
   "name" : "_ZN7android7String812unlockBufferEm"
  },
  {
   "name" : "_ZN7android7String812unlockBufferEv"
  },
  {
   "name" : "_ZN7android7String813appendFormatVEPKcSt9__va_list"
  },
  {
   "name" : "_ZN7android7String85clearEv"
  },
  {
   "name" : "_ZN7android7String85setToEPKDim"
  },
  {
   "name" : "_ZN7android7String85setToEPKDsm"
  },
  {
   "name" : "_ZN7android7String85setToEPKc"
  },
  {
   "name" : "_ZN7android7String85setToEPKcm"
  },
  {
   "name" : "_ZN7android7String85setToERKS0_"
  },
  {
   "name" : "_ZN7android7String86appendEPKc"
  },
  {
   "name" : "_ZN7android7String86appendEPKcm"
  },
  {
   "name" : "_ZN7android7String86appendERKS0_"
  },
  {
   "name" : "_ZN7android7String86formatEPKcz"
  },
  {
   "name" : "_ZN7android7String87formatVEPKcSt9__va_list"
  },
  {
   "name" : "_ZN7android7String87toLowerEv"
  },
  {
   "name" : "_ZN7android7String89removeAllEPKc"
  },
  {
   "name" : "_ZN7android7String8C1EPKDi"
  },
  {
   "name" : "_ZN7android7String8C1EPKDim"
  },
  {
   "name" : "_ZN7android7String8C1EPKDs"
  },
  {
   "name" : "_ZN7android7String8C1EPKDsm"
  },
  {
   "name" : "_ZN7android7String8C1EPKc"
  },
  {
   "name" : "_ZN7android7String8C1EPKcm"
  },
  {
   "name" : "_ZN7android7String8C1ERKNS_8String16E"
  },
  {
   "name" : "_ZN7android7String8C1ERKS0_"
  },
  {
   "name" : "_ZN7android7String8C1Ev"
  },
  {
   "name" : "_ZN7android7String8C2EPKDi"
  },
  {
   "name" : "_ZN7android7String8C2EPKDim"
  },
  {
   "name" : "_ZN7android7String8C2EPKDs"
  },
  {
   "name" : "_ZN7android7String8C2EPKDsm"
  },
  {
   "name" : "_ZN7android7String8C2EPKc"
  },
  {
   "name" : "_ZN7android7String8C2EPKcm"
  },
  {
   "name" : "_ZN7android7String8C2ERKNS_8String16E"
  },
  {
   "name" : "_ZN7android7String8C2ERKS0_"
  },
  {
   "name" : "_ZN7android7String8C2Ev"
  },
  {
   "name" : "_ZN7android7String8D1Ev"
  },
  {
   "name" : "_ZN7android7String8D2Ev"
  },
  {
   "name" : "_ZN7android8String1610editResizeEm"
  },
  {
   "name" : "_ZN7android8String1610replaceAllEDsDs"
  },
  {
   "name" : "_ZN7android8String1613allocFromUTF8EPKcm"
  },
  {
   "name" : "_ZN7android8String1614allocFromUTF16EPKDsm"
  },
  {
   "name" : "_ZN7android8String164editEv"
  },
  {
   "name" : "_ZN7android8String165allocEm"
  },
  {
   "name" : "_ZN7android8String165setToEPKDs"
  },
  {
   "name" : "_ZN7android8String165setToEPKDsm"
  },
  {
   "name" : "_ZN7android8String165setToERKS0_"
  },
  {
   "name" : "_ZN7android8String165setToERKS0_mm"
  },
  {
   "name" : "_ZN7android8String166appendEPKDsm"
  },
  {
   "name" : "_ZN7android8String166appendERKS0_"
  },
  {
   "name" : "_ZN7android8String166insertEmPKDs"
  },
  {
   "name" : "_ZN7android8String166insertEmPKDsm"
  },
  {
   "name" : "_ZN7android8String167acquireEv"
  },
  {
   "name" : "_ZN7android8String167releaseEv"
  },
  {
   "name" : "_ZN7android8String16C1EOS0_"
  },
  {
   "name" : "_ZN7android8String16C1EPKDs"
  },
  {
   "name" : "_ZN7android8String16C1EPKDsm"
  },
  {
   "name" : "_ZN7android8String16C1EPKc"
  },
  {
   "name" : "_ZN7android8String16C1EPKcm"
  },
  {
   "name" : "_ZN7android8String16C1ERKNS_7String8E"
  },
  {
   "name" : "_ZN7android8String16C1ERKS0_"
  },
  {
   "name" : "_ZN7android8String16C1ERKS0_mm"
  },
  {
   "name" : "_ZN7android8String16C1Ev"
  },
  {
   "name" : "_ZN7android8String16C2EOS0_"
  },
  {
   "name" : "_ZN7android8String16C2EPKDs"
  },
  {
   "name" : "_ZN7android8String16C2EPKDsm"
  },
  {
   "name" : "_ZN7android8String16C2EPKc"
  },
  {
   "name" : "_ZN7android8String16C2EPKcm"
  },
  {
   "name" : "_ZN7android8String16C2ERKNS_7String8E"
  },
  {
   "name" : "_ZN7android8String16C2ERKS0_"
  },
  {
   "name" : "_ZN7android8String16C2ERKS0_mm"
  },
  {
   "name" : "_ZN7android8String16C2Ev"
  },
  {
   "name" : "_ZN7android8String16D1Ev"
  },
  {
   "name" : "_ZN7android8String16D2Ev"
  },
  {
   "name" : "_ZN7android8String16aSEOS0_"
  },
  {
   "name" : "_ZN7android9FdPrinter9printLineEPKc"
  },
  {
   "name" : "_ZN7android9FdPrinterC1EijPKc"
  },
  {
   "name" : "_ZN7android9FdPrinterC2EijPKc"
  },
  {
   "name" : "_ZN7android9StopWatch5resetEv"
  },
  {
   "name" : "_ZN7android9StopWatchC1EPKci"
  },
  {
   "name" : "_ZN7android9StopWatchC2EPKci"
  },
  {
   "name" : "_ZN7android9StopWatchD1Ev"
  },
  {
   "name" : "_ZN7android9StopWatchD2Ev"
  },
  {
   "name" : "_ZN7android9Tokenizer12fromContentsERKNS_7String8EPKcPPS0_"
  },
  {
   "name" : "_ZN7android9Tokenizer14skipDelimitersEPKc"
  },
  {
   "name" : "_ZN7android9Tokenizer4openERKNS_7String8EPPS0_"
  },
  {
   "name" : "_ZN7android9Tokenizer8nextLineEv"
  },
  {
   "name" : "_ZN7android9Tokenizer9nextTokenEPKc"
  },
  {
   "name" : "_ZN7android9TokenizerC1ERKNS_7String8EPNS_7FileMapEPcbm"
  },
  {
   "name" : "_ZN7android9TokenizerC2ERKNS_7String8EPNS_7FileMapEPcbm"
  },
  {
   "name" : "_ZN7android9TokenizerD1Ev"
  },
  {
   "name" : "_ZN7android9TokenizerD2Ev"
  },
  {
   "name" : "_ZNK7android10VectorImpl12itemLocationEm"
  },
  {
   "name" : "_ZNK7android10VectorImpl8capacityEv"
  },
  {
   "name" : "_ZNK7android10VectorImpl8itemSizeEv"
  },
  {
   "name" : "_ZNK7android12SharedBuffer10editResizeEm"
  },
  {
   "name" : "_ZNK7android12SharedBuffer11attemptEditEv"
  },
  {
   "name" : "_ZNK7android12SharedBuffer4editEv"
  },
  {
   "name" : "_ZNK7android12SharedBuffer5resetEm"
  },
  {
   "name" : "_ZNK7android12SharedBuffer7acquireEv"
  },
  {
   "name" : "_ZNK7android12SharedBuffer7releaseEj"
  },
  {
   "name" : "_ZNK7android16SortedVectorImpl13_indexOrderOfEPKvPm"
  },
  {
   "name" : "_ZNK7android16SortedVectorImpl7indexOfEPKv"
  },
  {
   "name" : "_ZNK7android16SortedVectorImpl7orderOfEPKv"
  },
  {
   "name" : "_ZNK7android6Looper20getAllowNonCallbacksEv"
  },
  {
   "name" : "_ZNK7android6Looper7Request14getEpollEventsEv"
  },
  {
   "name" : "_ZNK7android6Looper9isPollingEv"
  },
  {
   "name" : "_ZNK7android6Thread11exitPendingEv"
  },
  {
   "name" : "_ZNK7android6Thread6getTidEv"
  },
  {
   "name" : "_ZNK7android6Thread9isRunningEv"
  },
  {
   "name" : "_ZNK7android7RefBase10createWeakEPKv"
  },
  {
   "name" : "_ZNK7android7RefBase11getWeakRefsEv"
  },
  {
   "name" : "_ZNK7android7RefBase12weakref_type12getWeakCountEv"
  },
  {
   "name" : "_ZNK7android7RefBase12weakref_type7refBaseEv"
  },
  {
   "name" : "_ZNK7android7RefBase12weakref_type9printRefsEv"
  },
  {
   "name" : "_ZNK7android7RefBase14forceIncStrongEPKv"
  },
  {
   "name" : "_ZNK7android7RefBase14getStrongCountEv"
  },
  {
   "name" : "_ZNK7android7RefBase22incStrongRequireStrongEPKv"
  },
  {
   "name" : "_ZNK7android7RefBase9decStrongEPKv"
  },
  {
   "name" : "_ZNK7android7RefBase9incStrongEPKv"
  },
  {
   "name" : "_ZNK7android7String810getPathDirEv"
  },
  {
   "name" : "_ZNK7android7String816getPathExtensionEv"
  },
  {
   "name" : "_ZNK7android7String84findEPKcm"
  },
  {
   "name" : "_ZNK7android7String86lengthEv"
  },
  {
   "name" : "_ZNK7android8String1610startsWithEPKDs"
  },
  {
   "name" : "_ZNK7android8String1610startsWithERKS0_"
  },
  {
   "name" : "_ZNK7android8String1614isStaticStringEv"
  },
  {
   "name" : "_ZNK7android8String1616staticStringSizeEv"
  },
  {
   "name" : "_ZNK7android8String164sizeEv"
  },
  {
   "name" : "_ZNK7android8String168containsEPKDs"
  },
  {
   "name" : "_ZNK7android8String168findLastEDs"
  },
  {
   "name" : "_ZNK7android8String169findFirstEDs"
  },
  {
   "name" : "_ZNK7android9StopWatch11elapsedTimeEv"
  },
  {
   "name" : "_ZNK7android9StopWatch4nameEv"
  },
  {
   "name" : "_ZNK7android9Tokenizer11getLocationEv"
  },
  {
   "name" : "_ZNK7android9Tokenizer19peekRemainderOfLineEv"
  },
  {
   "name" : "_ZTv0_n24_N7android14LooperCallbackD0Ev"
  },
  {
   "name" : "_ZTv0_n24_N7android14LooperCallbackD1Ev"
  },
  {
   "name" : "_ZTv0_n24_N7android14MessageHandlerD0Ev"
  },
  {
   "name" : "_ZTv0_n24_N7android14MessageHandlerD1Ev"
  },
  {
   "name" : "_ZTv0_n24_N7android18WeakMessageHandlerD0Ev"
  },
  {
   "name" : "_ZTv0_n24_N7android18WeakMessageHandlerD1Ev"
  },
  {
   "name" : "_ZTv0_n24_N7android20SimpleLooperCallbackD0Ev"
  },
  {
   "name" : "_ZTv0_n24_N7android20SimpleLooperCallbackD1Ev"
  },
  {
   "name" : "_ZTv0_n24_N7android6ThreadD0Ev"
  },
  {
   "name" : "_ZTv0_n24_N7android6ThreadD1Ev"
  },
  {
   "name" : "androidCreateRawThreadEtc"
  },
  {
   "name" : "androidCreateThread"
  },
  {
   "name" : "androidCreateThreadEtc"
  },
  {
   "name" : "androidGetThreadId"
  },
  {
   "name" : "androidGetThreadPriority"
  },
  {
   "name" : "androidSetCreateThreadFunc"
  },
  {
   "name" : "androidSetThreadName"
  },
  {
   "name" : "androidSetThreadPriority"
  },
  {
   "name" : "do_report_sysprop_change"
  },
  {
   "name" : "strcmp16"
  },
  {
   "name" : "strlen16"
  },
  {
   "name" : "strncmp16"
  },
  {
   "name" : "strnlen16"
  },
  {
   "name" : "strstr16"
  },
  {
   "name" : "strzcmp16"
  },
  {
   "name" : "systemTime"
  },
  {
   "name" : "toMillisecondTimeoutDelay"
  },
  {
   "name" : "utf16_to_utf8"
  },
  {
   "name" : "utf16_to_utf8_length"
  },
  {
   "name" : "utf32_from_utf8_at"
  },
  {
   "name" : "utf32_to_utf8"
  },
  {
   "name" : "utf32_to_utf8_length"
  },
  {
   "name" : "utf8_to_utf16"
  },
  {
   "name" : "utf8_to_utf16_length"
  },
  {
   "name" : "utf8_to_utf16_no_null_terminator"
  }
 ],
 "elf_objects" :
 [
  {
   "name" : "_ZN7android7FileMap9mPageSizeE"
  },
  {
   "name" : "_ZTCN7android18WeakMessageHandlerE0_NS_14MessageHandlerE"
  },
  {
   "name" : "_ZTCN7android20SimpleLooperCallbackE0_NS_14LooperCallbackE"
  },
  {
   "name" : "_ZTTN7android14LooperCallbackE"
  },
  {
   "name" : "_ZTTN7android14MessageHandlerE"
  },
  {
   "name" : "_ZTTN7android18WeakMessageHandlerE"
  },
  {
   "name" : "_ZTTN7android20SimpleLooperCallbackE"
  },
  {
   "name" : "_ZTTN7android6ThreadE"
  },
  {
   "name" : "_ZTVN7android10LogPrinterE"
  },
  {
   "name" : "_ZTVN7android10VectorImplE"
  },
  {
   "name" : "_ZTVN7android13PrefixPrinterE"
  },
  {
   "name" : "_ZTVN7android14LooperCallbackE"
  },
  {
   "name" : "_ZTVN7android14MessageHandlerE"
  },
  {
   "name" : "_ZTVN7android14String8PrinterE"
  },
  {
   "name" : "_ZTVN7android16SortedVectorImplE"
  },
  {
   "name" : "_ZTVN7android18WeakMessageHandlerE"
  },
  {
   "name" : "_ZTVN7android20SimpleLooperCallbackE"
  },
  {
   "name" : "_ZTVN7android6LooperE"
  },
  {
   "name" : "_ZTVN7android6ThreadE"
  },
  {
   "binding" : "weak",
   "name" : "_ZTVN7android6VectorINS_28sysprop_change_callback_infoEEE"
  },
  {
   "binding" : "weak",
   "name" : "_ZTVN7android6VectorINS_6Looper15MessageEnvelopeEEE"
  },
  {
   "binding" : "weak",
   "name" : "_ZTVN7android6VectorINS_6Looper8ResponseEEE"
  },
  {
   "name" : "_ZTVN7android7PrinterE"
  },
  {
   "name" : "_ZTVN7android7RefBaseE"
  },
  {
   "name" : "_ZTVN7android9FdPrinterE"
  },
  {
   "binding" : "weak",
   "name" : "__llvm_fs_discriminator__"
  }
 ],
 "enum_types" :
 [
  {
   "alignment" : 4,
   "enum_fields" :
   [
    {
     "enum_field_value" : 1,
     "name" : "HAL_HDR_DOLBY_VISION"
    },
    {
     "enum_field_value" : 2,
     "name" : "HAL_HDR_HDR10"
    },
    {
     "enum_field_value" : 3,
     "name" : "HAL_HDR_HLG"
    }
   ],
   "linker_set_key" : "_ZTI13android_hdr_t",
   "name" : "android_hdr_t",
   "size" : 4,
   "source_file" : "system/core/libsystem/include/system/graphics-base-v1.0.h",
   "underlying_type" : "_ZTIj"
  },
  {
   "alignment" : 4,
   "enum_fields" :
   [
    {
     "enum_field_value" : 4,
     "name" : "HAL_HDR_HDR10_PLUS"
    }
   ],
   "linker_set_key" : "_ZTI18android_hdr_v1_2_t",
   "name" : "android_hdr_v1_2_t",
   "size" : 4,
   "source_file" : "system/core/libsystem/include/system/graphics-base-v1.2.h",
   "underlying_type" : "_ZTIj"
  },
  {
   "alignment" : 4,
   "enum_fields" :
   [
    {
     "enum_field_value" : 0,
     "name" : "ANDROID_LOG_UNKNOWN"
    },
    {
     "enum_field_value" : 1,
     "name" : "ANDROID_LOG_DEFAULT"
    },
    {
     "enum_field_value" : 2,
     "name" : "ANDROID_LOG_VERBOSE"
    },
    {
     "enum_field_value" : 3,
     "name" : "ANDROID_LOG_DEBUG"
    },
    {
     "enum_field_value" : 4,
     "name" : "ANDROID_LOG_INFO"
    },
    {
     "enum_field_value" : 5,
     "name" : "ANDROID_LOG_WARN"
    },
    {
     "enum_field_value" : 6,
     "name" : "ANDROID_LOG_ERROR"
    },
    {
     "enum_field_value" : 7,
     "name" : "ANDROID_LOG_FATAL"
    },
    {
     "enum_field_value" : 8,
     "name" : "ANDROID_LOG_SILENT"
    }
   ],
   "linker_set_key" : "_ZTI19android_LogPriority",
   "name" : "android_LogPriority",
   "size" : 4,
   "source_file" : "system/logging/liblog/include_vndk/android/log.h",
   "underlying_type" : "_ZTIj"
  },
  {
   "alignment" : 4,
   "enum_fields" :
   [
    {
     "enum_field_value" : 0,
     "name" : "HAL_DATASPACE_UNKNOWN"
    },
    {
     "enum_field_value" : 1,
     "name" : "HAL_DATASPACE_ARBITRARY"
    },
    {
     "enum_field_value" : 16,
     "name" : "HAL_DATASPACE_STANDARD_SHIFT"
    },
    {
     "enum_field_value" : 4128768,
     "name" : "HAL_DATASPACE_STANDARD_MASK"
    },
    {
     "enum_field_value" : 0,
     "name" : "HAL_DATASPACE_STANDARD_UNSPECIFIED"
    },
    {
     "enum_field_value" : 65536,
     "name" : "HAL_DATASPACE_STANDARD_BT709"
    },
    {
     "enum_field_value" : 131072,
     "name" : "HAL_DATASPACE_STANDARD_BT601_625"
    },
    {
     "enum_field_value" : 196608,
     "name" : "HAL_DATASPACE_STANDARD_BT601_625_UNADJUSTED"
    },
    {
     "enum_field_value" : 262144,
     "name" : "HAL_DATASPACE_STANDARD_BT601_525"
    },
    {
     "enum_field_value" : 327680,
     "name" : "HAL_DATASPACE_STANDARD_BT601_525_UNADJUSTED"
    },
    {
     "enum_field_value" : 393216,
     "name" : "HAL_DATASPACE_STANDARD_BT2020"
    },
    {
     "enum_field_value" : 458752,
     "name" : "HAL_DATASPACE_STANDARD_BT2020_CONSTANT_LUMINANCE"
    },
    {
     "enum_field_value" : 524288,
     "name" : "HAL_DATASPACE_STANDARD_BT470M"
    },
    {
     "enum_field_value" : 589824,
     "name" : "HAL_DATASPACE_STANDARD_FILM"
    },
    {
     "enum_field_value" : 655360,
     "name" : "HAL_DATASPACE_STANDARD_DCI_P3"
    },
    {
     "enum_field_value" : 720896,
     "name" : "HAL_DATASPACE_STANDARD_ADOBE_RGB"
    },
    {
     "enum_field_value" : 22,
     "name" : "HAL_DATASPACE_TRANSFER_SHIFT"
    },
    {
     "enum_field_value" : 130023424,
     "name" : "HAL_DATASPACE_TRANSFER_MASK"
    },
    {
     "enum_field_value" : 0,
     "name" : "HAL_DATASPACE_TRANSFER_UNSPECIFIED"
    },
    {
     "enum_field_value" : 4194304,
     "name" : "HAL_DATASPACE_TRANSFER_LINEAR"
    },
    {
     "enum_field_value" : 8388608,
     "name" : "HAL_DATASPACE_TRANSFER_SRGB"
    },
    {
     "enum_field_value" : 12582912,
     "name" : "HAL_DATASPACE_TRANSFER_SMPTE_170M"
    },
    {
     "enum_field_value" : 16777216,
     "name" : "HAL_DATASPACE_TRANSFER_GAMMA2_2"
    },
    {
     "enum_field_value" : 20971520,
     "name" : "HAL_DATASPACE_TRANSFER_GAMMA2_6"
    },
    {
     "enum_field_value" : 25165824,
     "name" : "HAL_DATASPACE_TRANSFER_GAMMA2_8"
    },
    {
     "enum_field_value" : 29360128,
     "name" : "HAL_DATASPACE_TRANSFER_ST2084"
    },
    {
     "enum_field_value" : 33554432,
     "name" : "HAL_DATASPACE_TRANSFER_HLG"
    },
    {
     "enum_field_value" : 27,
     "name" : "HAL_DATASPACE_RANGE_SHIFT"
    },
    {
     "enum_field_value" : 939524096,
     "name" : "HAL_DATASPACE_RANGE_MASK"
    },
    {
     "enum_field_value" : 0,
     "name" : "HAL_DATASPACE_RANGE_UNSPECIFIED"
    },
    {
     "enum_field_value" : 134217728,
     "name" : "HAL_DATASPACE_RANGE_FULL"
    },
    {
     "enum_field_value" : 268435456,
     "name" : "HAL_DATASPACE_RANGE_LIMITED"
    },
    {
     "enum_field_value" : 402653184,
     "name" : "HAL_DATASPACE_RANGE_EXTENDED"
    },
    {
     "enum_field_value" : 512,
     "name" : "HAL_DATASPACE_SRGB_LINEAR"
    },
    {
     "enum_field_value" : 138477568,
     "name" : "HAL_DATASPACE_V0_SRGB_LINEAR"
    },
    {
     "enum_field_value" : 406913024,
     "name" : "HAL_DATASPACE_V0_SCRGB_LINEAR"
    },
    {
     "enum_field_value" : 513,
     "name" : "HAL_DATASPACE_SRGB"
    },
    {
     "enum_field_value" : 142671872,
     "name" : "HAL_DATASPACE_V0_SRGB"
    },
    {
     "enum_field_value" : 411107328,
     "name" : "HAL_DATASPACE_V0_SCRGB"
    },
    {
     "enum_field_value" : 257,
     "name" : "HAL_DATASPACE_JFIF"
    },
    {
     "enum_field_value" : 146931712,
     "name" : "HAL_DATASPACE_V0_JFIF"
    },
    {
     "enum_field_value" : 258,
     "name" : "HAL_DATASPACE_BT601_625"
    },
    {
     "enum_field_value" : 281149440,
     "name" : "HAL_DATASPACE_V0_BT601_625"
    },
    {
     "enum_field_value" : 259,
     "name" : "HAL_DATASPACE_BT601_525"
    },
    {
     "enum_field_value" : 281280512,
     "name" : "HAL_DATASPACE_V0_BT601_525"
    },
    {
     "enum_field_value" : 260,
     "name" : "HAL_DATASPACE_BT709"
    },
    {
     "enum_field_value" : 281083904,
     "name" : "HAL_DATASPACE_V0_BT709"
    },
    {
     "enum_field_value" : 139067392,
     "name" : "HAL_DATASPACE_DCI_P3_LINEAR"
    },
    {
     "enum_field_value" : 155844608,
     "name" : "HAL_DATASPACE_DCI_P3"
    },
    {
     "enum_field_value" : 139067392,
     "name" : "HAL_DATASPACE_DISPLAY_P3_LINEAR"
    },
    {
     "enum_field_value" : 143261696,
     "name" : "HAL_DATASPACE_DISPLAY_P3"
    },
    {
     "enum_field_value" : 151715840,
     "name" : "HAL_DATASPACE_ADOBE_RGB"
    },
    {
     "enum_field_value" : 138805248,
     "name" : "HAL_DATASPACE_BT2020_LINEAR"
    },
    {
     "enum_field_value" : 147193856,
     "name" : "HAL_DATASPACE_BT2020"
    },
    {
     "enum_field_value" : 163971072,
     "name" : "HAL_DATASPACE_BT2020_PQ"
    },
    {
     "enum_field_value" : 4096,
     "name" : "HAL_DATASPACE_DEPTH"
    },
    {
     "enum_field_value" : 4097,
     "name" : "HAL_DATASPACE_SENSOR"
    }
   ],
   "linker_set_key" : "_ZTI19android_dataspace_t",
   "name" : "android_dataspace_t",
   "size" : 4,
   "source_file" : "system/core/libsystem/include/system/graphics-base-v1.0.h",
   "underlying_type" : "_ZTIj"
  },
  {
   "alignment" : 4,
   "enum_fields" :
   [
    {
     "enum_field_value" : 0,
     "name" : "FLEX_FORMAT_INVALID"
    },
    {
     "enum_field_value" : 1,
     "name" : "FLEX_FORMAT_Y"
    },
    {
     "enum_field_value" : 7,
     "name" : "FLEX_FORMAT_YCbCr"
    },
    {
     "enum_field_value" : 1073741831,
     "name" : "FLEX_FORMAT_YCbCrA"
    },
    {
     "enum_field_value" : 7168,
     "name" : "FLEX_FORMAT_RGB"
    },
    {
     "enum_field_value" : 1073748992,
     "name" : "FLEX_FORMAT_RGBA"
    }
   ],
   "linker_set_key" : "_ZTI19android_flex_format",
   "name" : "android_flex_format",
   "size" : 4,
   "source_file" : "system/core/libsystem/include/system/graphics.h",
   "underlying_type" : "_ZTIj"
  },
  {
   "alignment" : 4,
   "enum_fields" :
   [
    {
     "enum_field_value" : 1,
     "name" : "HAL_TRANSFORM_FLIP_H"
    },
    {
     "enum_field_value" : 2,
     "name" : "HAL_TRANSFORM_FLIP_V"
    },
    {
     "enum_field_value" : 4,
     "name" : "HAL_TRANSFORM_ROT_90"
    },
    {
     "enum_field_value" : 3,
     "name" : "HAL_TRANSFORM_ROT_180"
    },
    {
     "enum_field_value" : 7,
     "name" : "HAL_TRANSFORM_ROT_270"
    }
   ],
   "linker_set_key" : "_ZTI19android_transform_t",
   "name" : "android_transform_t",
   "size" : 4,
   "source_file" : "system/core/libsystem/include/system/graphics-base-v1.0.h",
   "underlying_type" : "_ZTIj"
  },
  {
   "alignment" : 4,
   "enum_fields" :
   [
    {
     "enum_field_value" : 0,
     "name" : "HAL_COLOR_MODE_NATIVE"
    },
    {
     "enum_field_value" : 1,
     "name" : "HAL_COLOR_MODE_STANDARD_BT601_625"
    },
    {
     "enum_field_value" : 2,
     "name" : "HAL_COLOR_MODE_STANDARD_BT601_625_UNADJUSTED"
    },
    {
     "enum_field_value" : 3,
     "name" : "HAL_COLOR_MODE_STANDARD_BT601_525"
    },
    {
     "enum_field_value" : 4,
     "name" : "HAL_COLOR_MODE_STANDARD_BT601_525_UNADJUSTED"
    },
    {
     "enum_field_value" : 5,
     "name" : "HAL_COLOR_MODE_STANDARD_BT709"
    },
    {
     "enum_field_value" : 6,
     "name" : "HAL_COLOR_MODE_DCI_P3"
    },
    {
     "enum_field_value" : 7,
     "name" : "HAL_COLOR_MODE_SRGB"
    },
    {
     "enum_field_value" : 8,
     "name" : "HAL_COLOR_MODE_ADOBE_RGB"
    },
    {
     "enum_field_value" : 9,
     "name" : "HAL_COLOR_MODE_DISPLAY_P3"
    }
   ],
   "linker_set_key" : "_ZTI20android_color_mode_t",
   "name" : "android_color_mode_t",
   "size" : 4,
   "source_file" : "system/core/libsystem/include/system/graphics-base-v1.0.h",
   "underlying_type" : "_ZTIj"
  },
  {
   "alignment" : 4,
   "enum_fields" :
   [
    {
     "enum_field_value" : 0,
     "name" : "SYSTEM_TIME_REALTIME"
    },
    {
     "enum_field_value" : 1,
     "name" : "SYSTEM_TIME_MONOTONIC"
    },
    {
     "enum_field_value" : 2,
     "name" : "SYSTEM_TIME_PROCESS"
    },
    {
     "enum_field_value" : 3,
     "name" : "SYSTEM_TIME_THREAD"
    },
    {
     "enum_field_value" : 4,
     "name" : "SYSTEM_TIME_BOOTTIME"
    }
   ],
   "linker_set_key" : "_ZTI21$SYSTEM_TIME_BOOTTIME",
   "name" : "(unnamed)",
   "size" : 4,
   "source_file" : "system/core/libutils/include/utils/Timers.h",
   "underlying_type" : "_ZTIj"
  },
  {
   "alignment" : 4,
   "enum_fields" :
   [
    {
     "enum_field_value" : 1,
     "name" : "FLEX_COMPONENT_Y"
    },
    {
     "enum_field_value" : 2,
     "name" : "FLEX_COMPONENT_Cb"
    },
    {
     "enum_field_value" : 4,
     "name" : "FLEX_COMPONENT_Cr"
    },
    {
     "enum_field_value" : 1024,
     "name" : "FLEX_COMPONENT_R"
    },
    {
     "enum_field_value" : 2048,
     "name" : "FLEX_COMPONENT_G"
    },
    {
     "enum_field_value" : 4096,
     "name" : "FLEX_COMPONENT_B"
    },
    {
     "enum_field_value" : 1073741824,
     "name" : "FLEX_COMPONENT_A"
    }
   ],
   "linker_set_key" : "_ZTI22android_flex_component",
   "name" : "android_flex_component",
   "size" : 4,
   "source_file" : "system/core/libsystem/include/system/graphics.h",
   "underlying_type" : "_ZTIj"
  },
  {
   "alignment" : 4,
   "enum_fields" :
   [
    {
     "enum_field_value" : 1,
     "name" : "HAL_PIXEL_FORMAT_RGBA_8888"
    },
    {
     "enum_field_value" : 2,
     "name" : "HAL_PIXEL_FORMAT_RGBX_8888"
    },
    {
     "enum_field_value" : 3,
     "name" : "HAL_PIXEL_FORMAT_RGB_888"
    },
    {
     "enum_field_value" : 4,
     "name" : "HAL_PIXEL_FORMAT_RGB_565"
    },
    {
     "enum_field_value" : 5,
     "name" : "HAL_PIXEL_FORMAT_BGRA_8888"
    },
    {
     "enum_field_value" : 16,
     "name" : "HAL_PIXEL_FORMAT_YCBCR_422_SP"
    },
    {
     "enum_field_value" : 17,
     "name" : "HAL_PIXEL_FORMAT_YCRCB_420_SP"
    },
    {
     "enum_field_value" : 20,
     "name" : "HAL_PIXEL_FORMAT_YCBCR_422_I"
    },
    {
     "enum_field_value" : 22,
     "name" : "HAL_PIXEL_FORMAT_RGBA_FP16"
    },
    {
     "enum_field_value" : 32,
     "name" : "HAL_PIXEL_FORMAT_RAW16"
    },
    {
     "enum_field_value" : 33,
     "name" : "HAL_PIXEL_FORMAT_BLOB"
    },
    {
     "enum_field_value" : 34,
     "name" : "HAL_PIXEL_FORMAT_IMPLEMENTATION_DEFINED"
    },
    {
     "enum_field_value" : 35,
     "name" : "HAL_PIXEL_FORMAT_YCBCR_420_888"
    },
    {
     "enum_field_value" : 36,
     "name" : "HAL_PIXEL_FORMAT_RAW_OPAQUE"
    },
    {
     "enum_field_value" : 37,
     "name" : "HAL_PIXEL_FORMAT_RAW10"
    },
    {
     "enum_field_value" : 38,
     "name" : "HAL_PIXEL_FORMAT_RAW12"
    },
    {
     "enum_field_value" : 43,
     "name" : "HAL_PIXEL_FORMAT_RGBA_1010102"
    },
    {
     "enum_field_value" : 538982489,
     "name" : "HAL_PIXEL_FORMAT_Y8"
    },
    {
     "enum_field_value" : 540422489,
     "name" : "HAL_PIXEL_FORMAT_Y16"
    },
    {
     "enum_field_value" : 842094169,
     "name" : "HAL_PIXEL_FORMAT_YV12"
    }
   ],
   "linker_set_key" : "_ZTI22android_pixel_format_t",
   "name" : "android_pixel_format_t",
   "size" : 4,
   "source_file" : "system/core/libsystem/include/system/graphics-base-v1.0.h",
   "underlying_type" : "_ZTIj"
  },
  {
   "alignment" : 4,
   "enum_fields" :
   [
    {
     "enum_field_value" : 19,
     "name" : "ANDROID_PRIORITY_LOWEST"
    },
    {
     "enum_field_value" : 10,
     "name" : "ANDROID_PRIORITY_BACKGROUND"
    },
    {
     "enum_field_value" : 0,
     "name" : "ANDROID_PRIORITY_NORMAL"
    },
    {
     "enum_field_value" : -2,
     "name" : "ANDROID_PRIORITY_FOREGROUND"
    },
    {
     "enum_field_value" : -4,
     "name" : "ANDROID_PRIORITY_DISPLAY"
    },
    {
     "enum_field_value" : -8,
     "name" : "ANDROID_PRIORITY_URGENT_DISPLAY"
    },
    {
     "enum_field_value" : -10,
     "name" : "ANDROID_PRIORITY_VIDEO"
    },
    {
     "enum_field_value" : -16,
     "name" : "ANDROID_PRIORITY_AUDIO"
    },
    {
     "enum_field_value" : -19,
     "name" : "ANDROID_PRIORITY_URGENT_AUDIO"
    },
    {
     "enum_field_value" : -20,
     "name" : "ANDROID_PRIORITY_HIGHEST"
    },
    {
     "enum_field_value" : 0,
     "name" : "ANDROID_PRIORITY_DEFAULT"
    },
    {
     "enum_field_value" : -1,
     "name" : "ANDROID_PRIORITY_MORE_FAVORABLE"
    },
    {
     "enum_field_value" : 1,
     "name" : "ANDROID_PRIORITY_LESS_FAVORABLE"
    }
   ],
   "linker_set_key" : "_ZTI23$ANDROID_PRIORITY_AUDIO",
   "name" : "(unnamed)",
   "size" : 4,
   "source_file" : "system/core/libsystem/include/system/thread_defs.h",
   "underlying_type" : "_ZTIi"
  },
  {
   "alignment" : 4,
   "enum_fields" :
   [
    {
     "enum_field_value" : 281411584,
     "name" : "HAL_DATASPACE_BT2020_ITU"
    },
    {
     "enum_field_value" : 298188800,
     "name" : "HAL_DATASPACE_BT2020_ITU_PQ"
    },
    {
     "enum_field_value" : 302383104,
     "name" : "HAL_DATASPACE_BT2020_ITU_HLG"
    },
    {
     "enum_field_value" : 168165376,
     "name" : "HAL_DATASPACE_BT2020_HLG"
    }
   ],
   "linker_set_key" : "_ZTI24android_dataspace_v1_1_t",
   "name" : "android_dataspace_v1_1_t",
   "size" : 4,
   "source_file" : "system/core/libsystem/include/system/graphics-base-v1.1.h",
   "underlying_type" : "_ZTIj"
  },
  {
   "alignment" : 4,
   "enum_fields" :
   [
    {
     "enum_field_value" : 142999552,
     "name" : "HAL_DATASPACE_DISPLAY_BT2020"
    },
    {
     "enum_field_value" : 4098,
     "name" : "HAL_DATASPACE_DYNAMIC_DEPTH"
    },
    {
     "enum_field_value" : 4099,
     "name" : "HAL_DATASPACE_JPEG_APP_SEGMENTS"
    },
    {
     "enum_field_value" : 4100,
     "name" : "HAL_DATASPACE_HEIF"
    }
   ],
   "linker_set_key" : "_ZTI24android_dataspace_v1_2_t",
   "name" : "android_dataspace_v1_2_t",
   "size" : 4,
   "source_file" : "system/core/libsystem/include/system/graphics-base-v1.2.h",
   "underlying_type" : "_ZTIj"
  },
  {
   "alignment" : 4,
   "enum_fields" :
   [
    {
     "enum_field_value" : 10,
     "name" : "HAL_COLOR_MODE_BT2020"
    },
    {
     "enum_field_value" : 11,
     "name" : "HAL_COLOR_MODE_BT2100_PQ"
    },
    {
     "enum_field_value" : 12,
     "name" : "HAL_COLOR_MODE_BT2100_HLG"
    }
   ],
   "linker_set_key" : "_ZTI25android_color_mode_v1_1_t",
   "name" : "android_color_mode_v1_1_t",
   "size" : 4,
   "source_file" : "system/core/libsystem/include/system/graphics-base-v1.1.h",
   "underlying_type" : "_ZTIj"
  },
  {
   "alignment" : 4,
   "enum_fields" :
   [
    {
     "enum_field_value" : 13,
     "name" : "HAL_COLOR_MODE_DISPLAY_BT2020"
    }
   ],
   "linker_set_key" : "_ZTI25android_color_mode_v1_2_t",
   "name" : "android_color_mode_v1_2_t",
   "size" : 4,
   "source_file" : "system/core/libsystem/include/system/graphics-base-v1.2.h",
   "underlying_type" : "_ZTIj"
  },
  {
   "alignment" : 4,
   "enum_fields" :
   [
    {
     "enum_field_value" : 0,
     "name" : "HAL_COLOR_TRANSFORM_IDENTITY"
    },
    {
     "enum_field_value" : 1,
     "name" : "HAL_COLOR_TRANSFORM_ARBITRARY_MATRIX"
    },
    {
     "enum_field_value" : 2,
     "name" : "HAL_COLOR_TRANSFORM_VALUE_INVERSE"
    },
    {
     "enum_field_value" : 3,
     "name" : "HAL_COLOR_TRANSFORM_GRAYSCALE"
    },
    {
     "enum_field_value" : 4,
     "name" : "HAL_COLOR_TRANSFORM_CORRECT_PROTANOPIA"
    },
    {
     "enum_field_value" : 5,
     "name" : "HAL_COLOR_TRANSFORM_CORRECT_DEUTERANOPIA"
    },
    {
     "enum_field_value" : 6,
     "name" : "HAL_COLOR_TRANSFORM_CORRECT_TRITANOPIA"
    }
   ],
   "linker_set_key" : "_ZTI25android_color_transform_t",
   "name" : "android_color_transform_t",
   "size" : 4,
   "source_file" : "system/core/libsystem/include/system/graphics-base-v1.0.h",
   "underlying_type" : "_ZTIj"
  },
  {
   "alignment" : 4,
   "enum_fields" :
   [
    {
     "enum_field_value" : 39,
     "name" : "HAL_PIXEL_FORMAT_YCBCR_422_888"
    },
    {
     "enum_field_value" : 40,
     "name" : "HAL_PIXEL_FORMAT_YCBCR_444_888"
    },
    {
     "enum_field_value" : 41,
     "name" : "HAL_PIXEL_FORMAT_FLEX_RGB_888"
    },
    {
     "enum_field_value" : 42,
     "name" : "HAL_PIXEL_FORMAT_FLEX_RGBA_8888"
    }
   ],
   "linker_set_key" : "_ZTI25android_pixel_format_sw_t",
   "name" : "android_pixel_format_sw_t",
   "size" : 4,
   "source_file" : "system/core/libsystem/include/system/graphics-sw.h",
   "underlying_type" : "_ZTIj"
  },
  {
   "alignment" : 4,
   "enum_fields" :
   [
    {
     "enum_field_value" : 48,
     "name" : "HAL_PIXEL_FORMAT_DEPTH_16"
    },
    {
     "enum_field_value" : 49,
     "name" : "HAL_PIXEL_FORMAT_DEPTH_24"
    },
    {
     "enum_field_value" : 50,
     "name" : "HAL_PIXEL_FORMAT_DEPTH_24_STENCIL_8"
    },
    {
     "enum_field_value" : 51,
     "name" : "HAL_PIXEL_FORMAT_DEPTH_32F"
    },
    {
     "enum_field_value" : 52,
     "name" : "HAL_PIXEL_FORMAT_DEPTH_32F_STENCIL_8"
    },
    {
     "enum_field_value" : 53,
     "name" : "HAL_PIXEL_FORMAT_STENCIL_8"
    },
    {
     "enum_field_value" : 54,
     "name" : "HAL_PIXEL_FORMAT_YCBCR_P010"
    }
   ],
   "linker_set_key" : "_ZTI27android_pixel_format_v1_1_t",
   "name" : "android_pixel_format_v1_1_t",
   "size" : 4,
   "source_file" : "system/core/libsystem/include/system/graphics-base-v1.1.h",
   "underlying_type" : "_ZTIj"
  },
  {
   "alignment" : 4,
   "enum_fields" :
   [
    {
     "enum_field_value" : 55,
     "name" : "HAL_PIXEL_FORMAT_HSV_888"
    }
   ],
   "linker_set_key" : "_ZTI27android_pixel_format_v1_2_t",
   "name" : "android_pixel_format_v1_2_t",
   "size" : 4,
   "source_file" : "system/core/libsystem/include/system/graphics-base-v1.2.h",
   "underlying_type" : "_ZTIj"
  },
  {
   "alignment" : 4,
   "enum_fields" :
   [
    {
     "enum_field_value" : 0,
     "name" : "HAL_RENDER_INTENT_COLORIMETRIC"
    },
    {
     "enum_field_value" : 1,
     "name" : "HAL_RENDER_INTENT_ENHANCE"
    },
    {
     "enum_field_value" : 2,
     "name" : "HAL_RENDER_INTENT_TONE_MAP_COLORIMETRIC"
    },
    {
     "enum_field_value" : 3,
     "name" : "HAL_RENDER_INTENT_TONE_MAP_ENHANCE"
    }
   ],
   "linker_set_key" : "_ZTI28android_render_intent_v1_1_t",
   "name" : "android_render_intent_v1_1_t",
   "size" : 4,
   "source_file" : "system/core/libsystem/include/system/graphics-base-v1.1.h",
   "underlying_type" : "_ZTIj"
  },
  {
   "alignment" : 4,
   "enum_fields" :
   [
    {
     "enum_field_value" : 0,
     "name" : "LOG_ID_MIN"
    },
    {
     "enum_field_value" : 0,
     "name" : "LOG_ID_MAIN"
    },
    {
     "enum_field_value" : 1,
     "name" : "LOG_ID_RADIO"
    },
    {
     "enum_field_value" : 2,
     "name" : "LOG_ID_EVENTS"
    },
    {
     "enum_field_value" : 3,
     "name" : "LOG_ID_SYSTEM"
    },
    {
     "enum_field_value" : 4,
     "name" : "LOG_ID_CRASH"
    },
    {
     "enum_field_value" : 5,
     "name" : "LOG_ID_STATS"
    },
    {
     "enum_field_value" : 6,
     "name" : "LOG_ID_SECURITY"
    },
    {
     "enum_field_value" : 7,
     "name" : "LOG_ID_KERNEL"
    },
    {
     "enum_field_value" : 8,
     "name" : "LOG_ID_MAX"
    },
    {
     "enum_field_value" : 2147483647,
     "name" : "LOG_ID_DEFAULT"
    }
   ],
   "linker_set_key" : "_ZTI6log_id",
   "name" : "log_id",
   "size" : 4,
   "source_file" : "system/logging/liblog/include_vndk/android/log.h",
   "underlying_type" : "_ZTIj"
  },
  {
   "alignment" : 4,
   "enum_fields" :
   [
    {
     "enum_field_value" : 1,
     "name" : "android::VectorImpl::HAS_TRIVIAL_CTOR"
    },
    {
     "enum_field_value" : 2,
     "name" : "android::VectorImpl::HAS_TRIVIAL_DTOR"
    },
    {
     "enum_field_value" : 4,
     "name" : "android::VectorImpl::HAS_TRIVIAL_COPY"
    }
   ],
   "linker_set_key" : "_ZTIN7android10VectorImpl17$HAS_TRIVIAL_COPYE",
   "name" : "android::VectorImpl::(unnamed)",
   "size" : 4,
   "source_file" : "system/core/libutils/include/utils/VectorImpl.h",
   "underlying_type" : "_ZTIj"
  },
  {
   "alignment" : 4,
   "enum_fields" :
   [
    {
     "enum_field_value" : 1,
     "name" : "android::VectorImpl::HAS_TRIVIAL_CTOR"
    },
    {
     "enum_field_value" : 2,
     "name" : "android::VectorImpl::HAS_TRIVIAL_DTOR"
    },
    {
     "enum_field_value" : 4,
     "name" : "android::VectorImpl::HAS_TRIVIAL_COPY"
    }
   ],
   "linker_set_key" : "_ZTIN7android10VectorImpl17$HAS_TRIVIAL_COPYE",
   "name" : "android::VectorImpl::(unnamed)",
   "self_type" : "_ZTIN7android10VectorImpl17$HAS_TRIVIAL_COPYE#ODR:out/soong/.intermediates/system/core/libutils/binder/libutils_binder/android_vendor_arm64_armv8-a_cortex-a53_static_afdo-libutils/obj/system/core/libutils/binder/RefBase.sdump",
   "size" : 4,
   "source_file" : "system/core/libutils/binder/include/utils/VectorImpl.h",
   "underlying_type" : "_ZTIj"
  },
  {
   "alignment" : 4,
   "enum_fields" :
   [
    {
     "enum_field_value" : 0,
     "name" : "android::trait_pointer<android::sysprop_change_callback_info>::value"
    }
   ],
   "linker_set_key" : "_ZTIN7android13trait_pointerINS_28sysprop_change_callback_infoEE6$valueE",
   "name" : "android::trait_pointer<android::sysprop_change_callback_info>::(unnamed)",
   "size" : 4,
   "source_file" : "system/core/libutils/include/utils/TypeHelpers.h",
   "underlying_type" : "_ZTIj"
  },
  {
   "alignment" : 4,
   "enum_fields" :
   [
    {
     "enum_field_value" : 0,
     "name" : "android::trait_pointer<android::Looper::MessageEnvelope>::value"
    }
   ],
   "linker_set_key" : "_ZTIN7android13trait_pointerINS_6Looper15MessageEnvelopeEE6$valueE",
   "name" : "android::trait_pointer<android::Looper::MessageEnvelope>::(unnamed)",
   "size" : 4,
   "source_file" : "system/core/libutils/include/utils/TypeHelpers.h",
   "underlying_type" : "_ZTIj"
  },
  {
   "alignment" : 4,
   "enum_fields" :
   [
    {
     "enum_field_value" : 0,
     "name" : "android::trait_pointer<android::Looper::Response>::value"
    }
   ],
   "linker_set_key" : "_ZTIN7android13trait_pointerINS_6Looper8ResponseEE6$valueE",
   "name" : "android::trait_pointer<android::Looper::Response>::(unnamed)",
   "size" : 4,
   "source_file" : "system/core/libutils/include/utils/TypeHelpers.h",
   "underlying_type" : "_ZTIj"
  },
  {
   "alignment" : 4,
   "enum_fields" :
   [
    {
     "enum_field_value" : 0,
     "name" : "android::OK"
    },
    {
     "enum_field_value" : 0,
     "name" : "android::NO_ERROR"
    },
    {
     "enum_field_value" : -2147483648,
     "name" : "android::UNKNOWN_ERROR"
    },
    {
     "enum_field_value" : -12,
     "name" : "android::NO_MEMORY"
    },
    {
     "enum_field_value" : -38,
     "name" : "android::INVALID_OPERATION"
    },
    {
     "enum_field_value" : -22,
     "name" : "android::BAD_VALUE"
    },
    {
     "enum_field_value" : -2147483647,
     "name" : "android::BAD_TYPE"
    },
    {
     "enum_field_value" : -2,
     "name" : "android::NAME_NOT_FOUND"
    },
    {
     "enum_field_value" : -1,
     "name" : "android::PERMISSION_DENIED"
    },
    {
     "enum_field_value" : -19,
     "name" : "android::NO_INIT"
    },
    {
     "enum_field_value" : -17,
     "name" : "android::ALREADY_EXISTS"
    },
    {
     "enum_field_value" : -32,
     "name" : "android::DEAD_OBJECT"
    },
    {
     "enum_field_value" : -2147483646,
     "name" : "android::FAILED_TRANSACTION"
    },
    {
     "enum_field_value" : -75,
     "name" : "android::BAD_INDEX"
    },
    {
     "enum_field_value" : -61,
     "name" : "android::NOT_ENOUGH_DATA"
    },
    {
     "enum_field_value" : -11,
     "name" : "android::WOULD_BLOCK"
    },
    {
     "enum_field_value" : -110,
     "name" : "android::TIMED_OUT"
    },
    {
     "enum_field_value" : -74,
     "name" : "android::UNKNOWN_TRANSACTION"
    },
    {
     "enum_field_value" : -2147483641,
     "name" : "android::FDS_NOT_ALLOWED"
    },
    {
     "enum_field_value" : -2147483640,
     "name" : "android::UNEXPECTED_NULL"
    }
   ],
   "linker_set_key" : "_ZTIN7android15$ALREADY_EXISTSE",
   "name" : "android::(unnamed)",
   "size" : 4,
   "source_file" : "system/core/libutils/include/utils/Errors.h",
   "underlying_type" : "_ZTIi"
  },
  {
   "alignment" : 4,
   "enum_fields" :
   [
    {
     "enum_field_value" : 0,
     "name" : "android::OK"
    },
    {
     "enum_field_value" : 0,
     "name" : "android::NO_ERROR"
    },
    {
     "enum_field_value" : -2147483648,
     "name" : "android::UNKNOWN_ERROR"
    },
    {
     "enum_field_value" : -12,
     "name" : "android::NO_MEMORY"
    },
    {
     "enum_field_value" : -38,
     "name" : "android::INVALID_OPERATION"
    },
    {
     "enum_field_value" : -22,
     "name" : "android::BAD_VALUE"
    },
    {
     "enum_field_value" : -2147483647,
     "name" : "android::BAD_TYPE"
    },
    {
     "enum_field_value" : -2,
     "name" : "android::NAME_NOT_FOUND"
    },
    {
     "enum_field_value" : -1,
     "name" : "android::PERMISSION_DENIED"
    },
    {
     "enum_field_value" : -19,
     "name" : "android::NO_INIT"
    },
    {
     "enum_field_value" : -17,
     "name" : "android::ALREADY_EXISTS"
    },
    {
     "enum_field_value" : -32,
     "name" : "android::DEAD_OBJECT"
    },
    {
     "enum_field_value" : -2147483646,
     "name" : "android::FAILED_TRANSACTION"
    },
    {
     "enum_field_value" : -75,
     "name" : "android::BAD_INDEX"
    },
    {
     "enum_field_value" : -61,
     "name" : "android::NOT_ENOUGH_DATA"
    },
    {
     "enum_field_value" : -11,
     "name" : "android::WOULD_BLOCK"
    },
    {
     "enum_field_value" : -110,
     "name" : "android::TIMED_OUT"
    },
    {
     "enum_field_value" : -74,
     "name" : "android::UNKNOWN_TRANSACTION"
    },
    {
     "enum_field_value" : -2147483641,
     "name" : "android::FDS_NOT_ALLOWED"
    },
    {
     "enum_field_value" : -2147483640,
     "name" : "android::UNEXPECTED_NULL"
    }
   ],
   "linker_set_key" : "_ZTIN7android15$ALREADY_EXISTSE",
   "name" : "android::(unnamed)",
   "self_type" : "_ZTIN7android15$ALREADY_EXISTSE#ODR:out/soong/.intermediates/system/core/libutils/binder/libutils_binder/android_vendor_arm64_armv8-a_cortex-a53_static_afdo-libutils/obj/system/core/libutils/binder/Errors.sdump",
   "size" : 4,
   "source_file" : "system/core/libutils/binder/include/utils/Errors.h",
   "underlying_type" : "_ZTIi"
  },
  {
   "alignment" : 4,
   "enum_fields" :
   [
    {
     "enum_field_value" : 19,
     "name" : "android::PRIORITY_LOWEST"
    },
    {
     "enum_field_value" : 10,
     "name" : "android::PRIORITY_BACKGROUND"
    },
    {
     "enum_field_value" : 0,
     "name" : "android::PRIORITY_NORMAL"
    },
    {
     "enum_field_value" : -2,
     "name" : "android::PRIORITY_FOREGROUND"
    },
    {
     "enum_field_value" : -4,
     "name" : "android::PRIORITY_DISPLAY"
    },
    {
     "enum_field_value" : -8,
     "name" : "android::PRIORITY_URGENT_DISPLAY"
    },
    {
     "enum_field_value" : -16,
     "name" : "android::PRIORITY_AUDIO"
    },
    {
     "enum_field_value" : -19,
     "name" : "android::PRIORITY_URGENT_AUDIO"
    },
    {
     "enum_field_value" : -20,
     "name" : "android::PRIORITY_HIGHEST"
    },
    {
     "enum_field_value" : 0,
     "name" : "android::PRIORITY_DEFAULT"
    },
    {
     "enum_field_value" : -1,
     "name" : "android::PRIORITY_MORE_FAVORABLE"
    },
    {
     "enum_field_value" : 1,
     "name" : "android::PRIORITY_LESS_FAVORABLE"
    }
   ],
   "linker_set_key" : "_ZTIN7android15$PRIORITY_AUDIOE",
   "name" : "android::(unnamed)",
   "size" : 4,
   "source_file" : "system/core/libutils/include/utils/ThreadDefs.h",
   "underlying_type" : "_ZTIi"
  },
  {
   "alignment" : 4,
   "enum_fields" :
   [
    {
     "enum_field_value" : 0,
     "name" : "android::trait_trivial_copy<android::sysprop_change_callback_info>::value"
    }
   ],
   "linker_set_key" : "_ZTIN7android18trait_trivial_copyINS_28sysprop_change_callback_infoEE6$valueE",
   "name" : "android::trait_trivial_copy<android::sysprop_change_callback_info>::(unnamed)",
   "size" : 4,
   "source_file" : "system/core/libutils/include/utils/TypeHelpers.h",
   "underlying_type" : "_ZTIj"
  },
  {
   "alignment" : 4,
   "enum_fields" :
   [
    {
     "enum_field_value" : 0,
     "name" : "android::trait_trivial_copy<android::Looper::MessageEnvelope>::value"
    }
   ],
   "linker_set_key" : "_ZTIN7android18trait_trivial_copyINS_6Looper15MessageEnvelopeEE6$valueE",
   "name" : "android::trait_trivial_copy<android::Looper::MessageEnvelope>::(unnamed)",
   "size" : 4,
   "source_file" : "system/core/libutils/include/utils/TypeHelpers.h",
   "underlying_type" : "_ZTIj"
  },
  {
   "alignment" : 4,
   "enum_fields" :
   [
    {
     "enum_field_value" : 0,
     "name" : "android::trait_trivial_copy<android::Looper::Response>::value"
    }
   ],
   "linker_set_key" : "_ZTIN7android18trait_trivial_copyINS_6Looper8ResponseEE6$valueE",
   "name" : "android::trait_trivial_copy<android::Looper::Response>::(unnamed)",
   "size" : 4,
   "source_file" : "system/core/libutils/include/utils/TypeHelpers.h",
   "underlying_type" : "_ZTIj"
  },
  {
   "alignment" : 4,
   "enum_fields" :
   [
    {
     "enum_field_value" : 1,
     "name" : "android::trait_trivial_copy<bool>::value"
    }
   ],
   "linker_set_key" : "_ZTIN7android18trait_trivial_copyIbE6$valueE",
   "name" : "android::trait_trivial_copy<bool>::(unnamed)",
   "size" : 4,
   "source_file" : "system/core/libutils/include/utils/TypeHelpers.h",
   "underlying_type" : "_ZTIj"
  },
  {
   "alignment" : 4,
   "enum_fields" :
   [
    {
     "enum_field_value" : 1,
     "name" : "android::trait_trivial_copy<bool>::value"
    }
   ],
   "linker_set_key" : "_ZTIN7android18trait_trivial_copyIbE6$valueE",
   "name" : "android::trait_trivial_copy<bool>::(unnamed)",
   "self_type" : "_ZTIN7android18trait_trivial_copyIbE6$valueE#ODR:out/soong/.intermediates/system/core/libutils/binder/libutils_binder/android_vendor_arm64_armv8-a_cortex-a53_static_afdo-libutils/obj/system/core/libutils/binder/RefBase.sdump",
   "size" : 4,
   "source_file" : "system/core/libutils/binder/include/utils/TypeHelpers.h",
   "underlying_type" : "_ZTIj"
  },
  {
   "alignment" : 4,
   "enum_fields" :
   [
    {
     "enum_field_value" : 1,
     "name" : "android::trait_trivial_copy<char>::value"
    }
   ],
   "linker_set_key" : "_ZTIN7android18trait_trivial_copyIcE6$valueE",
   "name" : "android::trait_trivial_copy<char>::(unnamed)",
   "size" : 4,
   "source_file" : "system/core/libutils/include/utils/TypeHelpers.h",
   "underlying_type" : "_ZTIj"
  },
  {
   "alignment" : 4,
   "enum_fields" :
   [
    {
     "enum_field_value" : 1,
     "name" : "android::trait_trivial_copy<char>::value"
    }
   ],
   "linker_set_key" : "_ZTIN7android18trait_trivial_copyIcE6$valueE",
   "name" : "android::trait_trivial_copy<char>::(unnamed)",
   "self_type" : "_ZTIN7android18trait_trivial_copyIcE6$valueE#ODR:out/soong/.intermediates/system/core/libutils/binder/libutils_binder/android_vendor_arm64_armv8-a_cortex-a53_static_afdo-libutils/obj/system/core/libutils/binder/RefBase.sdump",
   "size" : 4,
   "source_file" : "system/core/libutils/binder/include/utils/TypeHelpers.h",
   "underlying_type" : "_ZTIj"
  },
  {
   "alignment" : 4,
   "enum_fields" :
   [
    {
     "enum_field_value" : 1,
     "name" : "android::trait_trivial_copy<double>::value"
    }
   ],
   "linker_set_key" : "_ZTIN7android18trait_trivial_copyIdE6$valueE",
   "name" : "android::trait_trivial_copy<double>::(unnamed)",
   "size" : 4,
   "source_file" : "system/core/libutils/include/utils/TypeHelpers.h",
   "underlying_type" : "_ZTIj"
  },
  {
   "alignment" : 4,
   "enum_fields" :
   [
    {
     "enum_field_value" : 1,
     "name" : "android::trait_trivial_copy<double>::value"
    }
   ],
   "linker_set_key" : "_ZTIN7android18trait_trivial_copyIdE6$valueE",
   "name" : "android::trait_trivial_copy<double>::(unnamed)",
   "self_type" : "_ZTIN7android18trait_trivial_copyIdE6$valueE#ODR:out/soong/.intermediates/system/core/libutils/binder/libutils_binder/android_vendor_arm64_armv8-a_cortex-a53_static_afdo-libutils/obj/system/core/libutils/binder/RefBase.sdump",
   "size" : 4,
   "source_file" : "system/core/libutils/binder/include/utils/TypeHelpers.h",
   "underlying_type" : "_ZTIj"
  },
  {
   "alignment" : 4,
   "enum_fields" :
   [
    {
     "enum_field_value" : 1,
     "name" : "android::trait_trivial_copy<float>::value"
    }
   ],
   "linker_set_key" : "_ZTIN7android18trait_trivial_copyIfE6$valueE",
   "name" : "android::trait_trivial_copy<float>::(unnamed)",
   "size" : 4,
   "source_file" : "system/core/libutils/include/utils/TypeHelpers.h",
   "underlying_type" : "_ZTIj"
  },
  {
   "alignment" : 4,
   "enum_fields" :
   [
    {
     "enum_field_value" : 1,
     "name" : "android::trait_trivial_copy<float>::value"
    }
   ],
   "linker_set_key" : "_ZTIN7android18trait_trivial_copyIfE6$valueE",
   "name" : "android::trait_trivial_copy<float>::(unnamed)",
   "self_type" : "_ZTIN7android18trait_trivial_copyIfE6$valueE#ODR:out/soong/.intermediates/system/core/libutils/binder/libutils_binder/android_vendor_arm64_armv8-a_cortex-a53_static_afdo-libutils/obj/system/core/libutils/binder/RefBase.sdump",
   "size" : 4,
   "source_file" : "system/core/libutils/binder/include/utils/TypeHelpers.h",
   "underlying_type" : "_ZTIj"
  },
  {
   "alignment" : 4,
   "enum_fields" :
   [
    {
     "enum_field_value" : 1,
     "name" : "android::trait_trivial_copy<unsigned char>::value"
    }
   ],
   "linker_set_key" : "_ZTIN7android18trait_trivial_copyIhE6$valueE",
   "name" : "android::trait_trivial_copy<unsigned char>::(unnamed)",
   "size" : 4,
   "source_file" : "system/core/libutils/include/utils/TypeHelpers.h",
   "underlying_type" : "_ZTIj"
  },
  {
   "alignment" : 4,
   "enum_fields" :
   [
    {
     "enum_field_value" : 1,
     "name" : "android::trait_trivial_copy<unsigned char>::value"
    }
   ],
   "linker_set_key" : "_ZTIN7android18trait_trivial_copyIhE6$valueE",
   "name" : "android::trait_trivial_copy<unsigned char>::(unnamed)",
   "self_type" : "_ZTIN7android18trait_trivial_copyIhE6$valueE#ODR:out/soong/.intermediates/system/core/libutils/binder/libutils_binder/android_vendor_arm64_armv8-a_cortex-a53_static_afdo-libutils/obj/system/core/libutils/binder/RefBase.sdump",
   "size" : 4,
   "source_file" : "system/core/libutils/binder/include/utils/TypeHelpers.h",
   "underlying_type" : "_ZTIj"
  },
  {
   "alignment" : 4,
   "enum_fields" :
   [
    {
     "enum_field_value" : 1,
     "name" : "android::trait_trivial_copy<int>::value"
    }
   ],
   "linker_set_key" : "_ZTIN7android18trait_trivial_copyIiE6$valueE",
   "name" : "android::trait_trivial_copy<int>::(unnamed)",
   "size" : 4,
   "source_file" : "system/core/libutils/include/utils/TypeHelpers.h",
   "underlying_type" : "_ZTIj"
  },
  {
   "alignment" : 4,
   "enum_fields" :
   [
    {
     "enum_field_value" : 1,
     "name" : "android::trait_trivial_copy<int>::value"
    }
   ],
   "linker_set_key" : "_ZTIN7android18trait_trivial_copyIiE6$valueE",
   "name" : "android::trait_trivial_copy<int>::(unnamed)",
   "self_type" : "_ZTIN7android18trait_trivial_copyIiE6$valueE#ODR:out/soong/.intermediates/system/core/libutils/binder/libutils_binder/android_vendor_arm64_armv8-a_cortex-a53_static_afdo-libutils/obj/system/core/libutils/binder/RefBase.sdump",
   "size" : 4,
   "source_file" : "system/core/libutils/binder/include/utils/TypeHelpers.h",
   "underlying_type" : "_ZTIj"
  },
  {
   "alignment" : 4,
   "enum_fields" :
   [
    {
     "enum_field_value" : 1,
     "name" : "android::trait_trivial_copy<unsigned int>::value"
    }
   ],
   "linker_set_key" : "_ZTIN7android18trait_trivial_copyIjE6$valueE",
   "name" : "android::trait_trivial_copy<unsigned int>::(unnamed)",
   "size" : 4,
   "source_file" : "system/core/libutils/include/utils/TypeHelpers.h",
   "underlying_type" : "_ZTIj"
  },
  {
   "alignment" : 4,
   "enum_fields" :
   [
    {
     "enum_field_value" : 1,
     "name" : "android::trait_trivial_copy<unsigned int>::value"
    }
   ],
   "linker_set_key" : "_ZTIN7android18trait_trivial_copyIjE6$valueE",
   "name" : "android::trait_trivial_copy<unsigned int>::(unnamed)",
   "self_type" : "_ZTIN7android18trait_trivial_copyIjE6$valueE#ODR:out/soong/.intermediates/system/core/libutils/binder/libutils_binder/android_vendor_arm64_armv8-a_cortex-a53_static_afdo-libutils/obj/system/core/libutils/binder/RefBase.sdump",
   "size" : 4,
   "source_file" : "system/core/libutils/binder/include/utils/TypeHelpers.h",
   "underlying_type" : "_ZTIj"
  },
  {
   "alignment" : 4,
   "enum_fields" :
   [
    {
     "enum_field_value" : 1,
     "name" : "android::trait_trivial_copy<long>::value"
    }
   ],
   "linker_set_key" : "_ZTIN7android18trait_trivial_copyIlE6$valueE",
   "name" : "android::trait_trivial_copy<long>::(unnamed)",
   "size" : 4,
   "source_file" : "system/core/libutils/include/utils/TypeHelpers.h",
   "underlying_type" : "_ZTIj"
  },
  {
   "alignment" : 4,
   "enum_fields" :
   [
    {
     "enum_field_value" : 1,
     "name" : "android::trait_trivial_copy<long>::value"
    }
   ],
   "linker_set_key" : "_ZTIN7android18trait_trivial_copyIlE6$valueE",
   "name" : "android::trait_trivial_copy<long>::(unnamed)",
   "self_type" : "_ZTIN7android18trait_trivial_copyIlE6$valueE#ODR:out/soong/.intermediates/system/core/libutils/binder/libutils_binder/android_vendor_arm64_armv8-a_cortex-a53_static_afdo-libutils/obj/system/core/libutils/binder/RefBase.sdump",
   "size" : 4,
   "source_file" : "system/core/libutils/binder/include/utils/TypeHelpers.h",
   "underlying_type" : "_ZTIj"
  },
  {
   "alignment" : 4,
   "enum_fields" :
   [
    {
     "enum_field_value" : 1,
     "name" : "android::trait_trivial_copy<unsigned long>::value"
    }
   ],
   "linker_set_key" : "_ZTIN7android18trait_trivial_copyImE6$valueE",
   "name" : "android::trait_trivial_copy<unsigned long>::(unnamed)",
   "size" : 4,
   "source_file" : "system/core/libutils/include/utils/TypeHelpers.h",
   "underlying_type" : "_ZTIj"
  },
  {
   "alignment" : 4,
   "enum_fields" :
   [
    {
     "enum_field_value" : 1,
     "name" : "android::trait_trivial_copy<unsigned long>::value"
    }
   ],
   "linker_set_key" : "_ZTIN7android18trait_trivial_copyImE6$valueE",
   "name" : "android::trait_trivial_copy<unsigned long>::(unnamed)",
   "self_type" : "_ZTIN7android18trait_trivial_copyImE6$valueE#ODR:out/soong/.intermediates/system/core/libutils/binder/libutils_binder/android_vendor_arm64_armv8-a_cortex-a53_static_afdo-libutils/obj/system/core/libutils/binder/RefBase.sdump",
   "size" : 4,
   "source_file" : "system/core/libutils/binder/include/utils/TypeHelpers.h",
   "underlying_type" : "_ZTIj"
  },
  {
   "alignment" : 4,
   "enum_fields" :
   [
    {
     "enum_field_value" : 1,
     "name" : "android::trait_trivial_copy<short>::value"
    }
   ],
   "linker_set_key" : "_ZTIN7android18trait_trivial_copyIsE6$valueE",
   "name" : "android::trait_trivial_copy<short>::(unnamed)",
   "size" : 4,
   "source_file" : "system/core/libutils/include/utils/TypeHelpers.h",
   "underlying_type" : "_ZTIj"
  },
  {
   "alignment" : 4,
   "enum_fields" :
   [
    {
     "enum_field_value" : 1,
     "name" : "android::trait_trivial_copy<short>::value"
    }
   ],
   "linker_set_key" : "_ZTIN7android18trait_trivial_copyIsE6$valueE",
   "name" : "android::trait_trivial_copy<short>::(unnamed)",
   "self_type" : "_ZTIN7android18trait_trivial_copyIsE6$valueE#ODR:out/soong/.intermediates/system/core/libutils/binder/libutils_binder/android_vendor_arm64_armv8-a_cortex-a53_static_afdo-libutils/obj/system/core/libutils/binder/RefBase.sdump",
   "size" : 4,
   "source_file" : "system/core/libutils/binder/include/utils/TypeHelpers.h",
   "underlying_type" : "_ZTIj"
  },
  {
   "alignment" : 4,
   "enum_fields" :
   [
    {
     "enum_field_value" : 1,
     "name" : "android::trait_trivial_copy<unsigned short>::value"
    }
   ],
   "linker_set_key" : "_ZTIN7android18trait_trivial_copyItE6$valueE",
   "name" : "android::trait_trivial_copy<unsigned short>::(unnamed)",
   "size" : 4,
   "source_file" : "system/core/libutils/include/utils/TypeHelpers.h",
   "underlying_type" : "_ZTIj"
  },
  {
   "alignment" : 4,
   "enum_fields" :
   [
    {
     "enum_field_value" : 1,
     "name" : "android::trait_trivial_copy<unsigned short>::value"
    }
   ],
   "linker_set_key" : "_ZTIN7android18trait_trivial_copyItE6$valueE",
   "name" : "android::trait_trivial_copy<unsigned short>::(unnamed)",
   "self_type" : "_ZTIN7android18trait_trivial_copyItE6$valueE#ODR:out/soong/.intermediates/system/core/libutils/binder/libutils_binder/android_vendor_arm64_armv8-a_cortex-a53_static_afdo-libutils/obj/system/core/libutils/binder/RefBase.sdump",
   "size" : 4,
   "source_file" : "system/core/libutils/binder/include/utils/TypeHelpers.h",
   "underlying_type" : "_ZTIj"
  },
  {
   "alignment" : 4,
   "enum_fields" :
   [
    {
     "enum_field_value" : 1,
     "name" : "android::trait_trivial_copy<void>::value"
    }
   ],
   "linker_set_key" : "_ZTIN7android18trait_trivial_copyIvE6$valueE",
   "name" : "android::trait_trivial_copy<void>::(unnamed)",
   "size" : 4,
   "source_file" : "system/core/libutils/include/utils/TypeHelpers.h",
   "underlying_type" : "_ZTIj"
  },
  {
   "alignment" : 4,
   "enum_fields" :
   [
    {
     "enum_field_value" : 1,
     "name" : "android::trait_trivial_copy<void>::value"
    }
   ],
   "linker_set_key" : "_ZTIN7android18trait_trivial_copyIvE6$valueE",
   "name" : "android::trait_trivial_copy<void>::(unnamed)",
   "self_type" : "_ZTIN7android18trait_trivial_copyIvE6$valueE#ODR:out/soong/.intermediates/system/core/libutils/binder/libutils_binder/android_vendor_arm64_armv8-a_cortex-a53_static_afdo-libutils/obj/system/core/libutils/binder/RefBase.sdump",
   "size" : 4,
   "source_file" : "system/core/libutils/binder/include/utils/TypeHelpers.h",
   "underlying_type" : "_ZTIj"
  },
  {
   "alignment" : 4,
   "enum_fields" :
   [
    {
     "enum_field_value" : 1,
     "name" : "android::trait_trivial_copy<long long>::value"
    }
   ],
   "linker_set_key" : "_ZTIN7android18trait_trivial_copyIxE6$valueE",
   "name" : "android::trait_trivial_copy<long long>::(unnamed)",
   "size" : 4,
   "source_file" : "system/core/libutils/include/utils/TypeHelpers.h",
   "underlying_type" : "_ZTIj"
  },
  {
   "alignment" : 4,
   "enum_fields" :
   [
    {
     "enum_field_value" : 1,
     "name" : "android::trait_trivial_copy<long long>::value"
    }
   ],
   "linker_set_key" : "_ZTIN7android18trait_trivial_copyIxE6$valueE",
   "name" : "android::trait_trivial_copy<long long>::(unnamed)",
   "self_type" : "_ZTIN7android18trait_trivial_copyIxE6$valueE#ODR:out/soong/.intermediates/system/core/libutils/binder/libutils_binder/android_vendor_arm64_armv8-a_cortex-a53_static_afdo-libutils/obj/system/core/libutils/binder/RefBase.sdump",
   "size" : 4,
   "source_file" : "system/core/libutils/binder/include/utils/TypeHelpers.h",
   "underlying_type" : "_ZTIj"
  },
  {
   "alignment" : 4,
   "enum_fields" :
   [
    {
     "enum_field_value" : 1,
     "name" : "android::trait_trivial_copy<unsigned long long>::value"
    }
   ],
   "linker_set_key" : "_ZTIN7android18trait_trivial_copyIyE6$valueE",
   "name" : "android::trait_trivial_copy<unsigned long long>::(unnamed)",
   "size" : 4,
   "source_file" : "system/core/libutils/include/utils/TypeHelpers.h",
   "underlying_type" : "_ZTIj"
  },
  {
   "alignment" : 4,
   "enum_fields" :
   [
    {
     "enum_field_value" : 1,
     "name" : "android::trait_trivial_copy<unsigned long long>::value"
    }
   ],
   "linker_set_key" : "_ZTIN7android18trait_trivial_copyIyE6$valueE",
   "name" : "android::trait_trivial_copy<unsigned long long>::(unnamed)",
   "self_type" : "_ZTIN7android18trait_trivial_copyIyE6$valueE#ODR:out/soong/.intermediates/system/core/libutils/binder/libutils_binder/android_vendor_arm64_armv8-a_cortex-a53_static_afdo-libutils/obj/system/core/libutils/binder/RefBase.sdump",
   "size" : 4,
   "source_file" : "system/core/libutils/binder/include/utils/TypeHelpers.h",
   "underlying_type" : "_ZTIj"
  },
  {
   "alignment" : 4,
   "enum_fields" :
   [
    {
     "enum_field_value" : 0,
     "name" : "android::trait_trivial_ctor<android::sysprop_change_callback_info>::value"
    }
   ],
   "linker_set_key" : "_ZTIN7android18trait_trivial_ctorINS_28sysprop_change_callback_infoEE6$valueE",
   "name" : "android::trait_trivial_ctor<android::sysprop_change_callback_info>::(unnamed)",
   "size" : 4,
   "source_file" : "system/core/libutils/include/utils/TypeHelpers.h",
   "underlying_type" : "_ZTIj"
  },
  {
   "alignment" : 4,
   "enum_fields" :
   [
    {
     "enum_field_value" : 0,
     "name" : "android::trait_trivial_ctor<android::Looper::MessageEnvelope>::value"
    }
   ],
   "linker_set_key" : "_ZTIN7android18trait_trivial_ctorINS_6Looper15MessageEnvelopeEE6$valueE",
   "name" : "android::trait_trivial_ctor<android::Looper::MessageEnvelope>::(unnamed)",
   "size" : 4,
   "source_file" : "system/core/libutils/include/utils/TypeHelpers.h",
   "underlying_type" : "_ZTIj"
  },
  {
   "alignment" : 4,
   "enum_fields" :
   [
    {
     "enum_field_value" : 0,
     "name" : "android::trait_trivial_ctor<android::Looper::Response>::value"
    }
   ],
   "linker_set_key" : "_ZTIN7android18trait_trivial_ctorINS_6Looper8ResponseEE6$valueE",
   "name" : "android::trait_trivial_ctor<android::Looper::Response>::(unnamed)",
   "size" : 4,
   "source_file" : "system/core/libutils/include/utils/TypeHelpers.h",
   "underlying_type" : "_ZTIj"
  },
  {
   "alignment" : 4,
   "enum_fields" :
   [
    {
     "enum_field_value" : 1,
     "name" : "android::trait_trivial_ctor<bool>::value"
    }
   ],
   "linker_set_key" : "_ZTIN7android18trait_trivial_ctorIbE6$valueE",
   "name" : "android::trait_trivial_ctor<bool>::(unnamed)",
   "size" : 4,
   "source_file" : "system/core/libutils/include/utils/TypeHelpers.h",
   "underlying_type" : "_ZTIj"
  },
  {
   "alignment" : 4,
   "enum_fields" :
   [
    {
     "enum_field_value" : 1,
     "name" : "android::trait_trivial_ctor<bool>::value"
    }
   ],
   "linker_set_key" : "_ZTIN7android18trait_trivial_ctorIbE6$valueE",
   "name" : "android::trait_trivial_ctor<bool>::(unnamed)",
   "self_type" : "_ZTIN7android18trait_trivial_ctorIbE6$valueE#ODR:out/soong/.intermediates/system/core/libutils/binder/libutils_binder/android_vendor_arm64_armv8-a_cortex-a53_static_afdo-libutils/obj/system/core/libutils/binder/RefBase.sdump",
   "size" : 4,
   "source_file" : "system/core/libutils/binder/include/utils/TypeHelpers.h",
   "underlying_type" : "_ZTIj"
  },
  {
   "alignment" : 4,
   "enum_fields" :
   [
    {
     "enum_field_value" : 1,
     "name" : "android::trait_trivial_ctor<char>::value"
    }
   ],
   "linker_set_key" : "_ZTIN7android18trait_trivial_ctorIcE6$valueE",
   "name" : "android::trait_trivial_ctor<char>::(unnamed)",
   "size" : 4,
   "source_file" : "system/core/libutils/include/utils/TypeHelpers.h",
   "underlying_type" : "_ZTIj"
  },
  {
   "alignment" : 4,
   "enum_fields" :
   [
    {
     "enum_field_value" : 1,
     "name" : "android::trait_trivial_ctor<char>::value"
    }
   ],
   "linker_set_key" : "_ZTIN7android18trait_trivial_ctorIcE6$valueE",
   "name" : "android::trait_trivial_ctor<char>::(unnamed)",
   "self_type" : "_ZTIN7android18trait_trivial_ctorIcE6$valueE#ODR:out/soong/.intermediates/system/core/libutils/binder/libutils_binder/android_vendor_arm64_armv8-a_cortex-a53_static_afdo-libutils/obj/system/core/libutils/binder/RefBase.sdump",
   "size" : 4,
   "source_file" : "system/core/libutils/binder/include/utils/TypeHelpers.h",
   "underlying_type" : "_ZTIj"
  },
  {
   "alignment" : 4,
   "enum_fields" :
   [
    {
     "enum_field_value" : 1,
     "name" : "android::trait_trivial_ctor<double>::value"
    }
   ],
   "linker_set_key" : "_ZTIN7android18trait_trivial_ctorIdE6$valueE",
   "name" : "android::trait_trivial_ctor<double>::(unnamed)",
   "size" : 4,
   "source_file" : "system/core/libutils/include/utils/TypeHelpers.h",
   "underlying_type" : "_ZTIj"
  },
  {
   "alignment" : 4,
   "enum_fields" :
   [
    {
     "enum_field_value" : 1,
     "name" : "android::trait_trivial_ctor<double>::value"
    }
   ],
   "linker_set_key" : "_ZTIN7android18trait_trivial_ctorIdE6$valueE",
   "name" : "android::trait_trivial_ctor<double>::(unnamed)",
   "self_type" : "_ZTIN7android18trait_trivial_ctorIdE6$valueE#ODR:out/soong/.intermediates/system/core/libutils/binder/libutils_binder/android_vendor_arm64_armv8-a_cortex-a53_static_afdo-libutils/obj/system/core/libutils/binder/RefBase.sdump",
   "size" : 4,
   "source_file" : "system/core/libutils/binder/include/utils/TypeHelpers.h",
   "underlying_type" : "_ZTIj"
  },
  {
   "alignment" : 4,
   "enum_fields" :
   [
    {
     "enum_field_value" : 1,
     "name" : "android::trait_trivial_ctor<float>::value"
    }
   ],
   "linker_set_key" : "_ZTIN7android18trait_trivial_ctorIfE6$valueE",
   "name" : "android::trait_trivial_ctor<float>::(unnamed)",
   "size" : 4,
   "source_file" : "system/core/libutils/include/utils/TypeHelpers.h",
   "underlying_type" : "_ZTIj"
  },
  {
   "alignment" : 4,
   "enum_fields" :
   [
    {
     "enum_field_value" : 1,
     "name" : "android::trait_trivial_ctor<float>::value"
    }
   ],
   "linker_set_key" : "_ZTIN7android18trait_trivial_ctorIfE6$valueE",
   "name" : "android::trait_trivial_ctor<float>::(unnamed)",
   "self_type" : "_ZTIN7android18trait_trivial_ctorIfE6$valueE#ODR:out/soong/.intermediates/system/core/libutils/binder/libutils_binder/android_vendor_arm64_armv8-a_cortex-a53_static_afdo-libutils/obj/system/core/libutils/binder/RefBase.sdump",
   "size" : 4,
   "source_file" : "system/core/libutils/binder/include/utils/TypeHelpers.h",
   "underlying_type" : "_ZTIj"
  },
  {
   "alignment" : 4,
   "enum_fields" :
   [
    {
     "enum_field_value" : 1,
     "name" : "android::trait_trivial_ctor<unsigned char>::value"
    }
   ],
   "linker_set_key" : "_ZTIN7android18trait_trivial_ctorIhE6$valueE",
   "name" : "android::trait_trivial_ctor<unsigned char>::(unnamed)",
   "size" : 4,
   "source_file" : "system/core/libutils/include/utils/TypeHelpers.h",
   "underlying_type" : "_ZTIj"
  },
  {
   "alignment" : 4,
   "enum_fields" :
   [
    {
     "enum_field_value" : 1,
     "name" : "android::trait_trivial_ctor<unsigned char>::value"
    }
   ],
   "linker_set_key" : "_ZTIN7android18trait_trivial_ctorIhE6$valueE",
   "name" : "android::trait_trivial_ctor<unsigned char>::(unnamed)",
   "self_type" : "_ZTIN7android18trait_trivial_ctorIhE6$valueE#ODR:out/soong/.intermediates/system/core/libutils/binder/libutils_binder/android_vendor_arm64_armv8-a_cortex-a53_static_afdo-libutils/obj/system/core/libutils/binder/RefBase.sdump",
   "size" : 4,
   "source_file" : "system/core/libutils/binder/include/utils/TypeHelpers.h",
   "underlying_type" : "_ZTIj"
  },
  {
   "alignment" : 4,
   "enum_fields" :
   [
    {
     "enum_field_value" : 1,
     "name" : "android::trait_trivial_ctor<int>::value"
    }
   ],
   "linker_set_key" : "_ZTIN7android18trait_trivial_ctorIiE6$valueE",
   "name" : "android::trait_trivial_ctor<int>::(unnamed)",
   "size" : 4,
   "source_file" : "system/core/libutils/include/utils/TypeHelpers.h",
   "underlying_type" : "_ZTIj"
  },
  {
   "alignment" : 4,
   "enum_fields" :
   [
    {
     "enum_field_value" : 1,
     "name" : "android::trait_trivial_ctor<int>::value"
    }
   ],
   "linker_set_key" : "_ZTIN7android18trait_trivial_ctorIiE6$valueE",
   "name" : "android::trait_trivial_ctor<int>::(unnamed)",
   "self_type" : "_ZTIN7android18trait_trivial_ctorIiE6$valueE#ODR:out/soong/.intermediates/system/core/libutils/binder/libutils_binder/android_vendor_arm64_armv8-a_cortex-a53_static_afdo-libutils/obj/system/core/libutils/binder/RefBase.sdump",
   "size" : 4,
   "source_file" : "system/core/libutils/binder/include/utils/TypeHelpers.h",
   "underlying_type" : "_ZTIj"
  },
  {
   "alignment" : 4,
   "enum_fields" :
   [
    {
     "enum_field_value" : 1,
     "name" : "android::trait_trivial_ctor<unsigned int>::value"
    }
   ],
   "linker_set_key" : "_ZTIN7android18trait_trivial_ctorIjE6$valueE",
   "name" : "android::trait_trivial_ctor<unsigned int>::(unnamed)",
   "size" : 4,
   "source_file" : "system/core/libutils/include/utils/TypeHelpers.h",
   "underlying_type" : "_ZTIj"
  },
  {
   "alignment" : 4,
   "enum_fields" :
   [
    {
     "enum_field_value" : 1,
     "name" : "android::trait_trivial_ctor<unsigned int>::value"
    }
   ],
   "linker_set_key" : "_ZTIN7android18trait_trivial_ctorIjE6$valueE",
   "name" : "android::trait_trivial_ctor<unsigned int>::(unnamed)",
   "self_type" : "_ZTIN7android18trait_trivial_ctorIjE6$valueE#ODR:out/soong/.intermediates/system/core/libutils/binder/libutils_binder/android_vendor_arm64_armv8-a_cortex-a53_static_afdo-libutils/obj/system/core/libutils/binder/RefBase.sdump",
   "size" : 4,
   "source_file" : "system/core/libutils/binder/include/utils/TypeHelpers.h",
   "underlying_type" : "_ZTIj"
  },
  {
   "alignment" : 4,
   "enum_fields" :
   [
    {
     "enum_field_value" : 1,
     "name" : "android::trait_trivial_ctor<long>::value"
    }
   ],
   "linker_set_key" : "_ZTIN7android18trait_trivial_ctorIlE6$valueE",
   "name" : "android::trait_trivial_ctor<long>::(unnamed)",
   "size" : 4,
   "source_file" : "system/core/libutils/include/utils/TypeHelpers.h",
   "underlying_type" : "_ZTIj"
  },
  {
   "alignment" : 4,
   "enum_fields" :
   [
    {
     "enum_field_value" : 1,
     "name" : "android::trait_trivial_ctor<long>::value"
    }
   ],
   "linker_set_key" : "_ZTIN7android18trait_trivial_ctorIlE6$valueE",
   "name" : "android::trait_trivial_ctor<long>::(unnamed)",
   "self_type" : "_ZTIN7android18trait_trivial_ctorIlE6$valueE#ODR:out/soong/.intermediates/system/core/libutils/binder/libutils_binder/android_vendor_arm64_armv8-a_cortex-a53_static_afdo-libutils/obj/system/core/libutils/binder/RefBase.sdump",
   "size" : 4,
   "source_file" : "system/core/libutils/binder/include/utils/TypeHelpers.h",
   "underlying_type" : "_ZTIj"
  },
  {
   "alignment" : 4,
   "enum_fields" :
   [
    {
     "enum_field_value" : 1,
     "name" : "android::trait_trivial_ctor<unsigned long>::value"
    }
   ],
   "linker_set_key" : "_ZTIN7android18trait_trivial_ctorImE6$valueE",
   "name" : "android::trait_trivial_ctor<unsigned long>::(unnamed)",
   "size" : 4,
   "source_file" : "system/core/libutils/include/utils/TypeHelpers.h",
   "underlying_type" : "_ZTIj"
  },
  {
   "alignment" : 4,
   "enum_fields" :
   [
    {
     "enum_field_value" : 1,
     "name" : "android::trait_trivial_ctor<unsigned long>::value"
    }
   ],
   "linker_set_key" : "_ZTIN7android18trait_trivial_ctorImE6$valueE",
   "name" : "android::trait_trivial_ctor<unsigned long>::(unnamed)",
   "self_type" : "_ZTIN7android18trait_trivial_ctorImE6$valueE#ODR:out/soong/.intermediates/system/core/libutils/binder/libutils_binder/android_vendor_arm64_armv8-a_cortex-a53_static_afdo-libutils/obj/system/core/libutils/binder/RefBase.sdump",
   "size" : 4,
   "source_file" : "system/core/libutils/binder/include/utils/TypeHelpers.h",
   "underlying_type" : "_ZTIj"
  },
  {
   "alignment" : 4,
   "enum_fields" :
   [
    {
     "enum_field_value" : 1,
     "name" : "android::trait_trivial_ctor<short>::value"
    }
   ],
   "linker_set_key" : "_ZTIN7android18trait_trivial_ctorIsE6$valueE",
   "name" : "android::trait_trivial_ctor<short>::(unnamed)",
   "size" : 4,
   "source_file" : "system/core/libutils/include/utils/TypeHelpers.h",
   "underlying_type" : "_ZTIj"
  },
  {
   "alignment" : 4,
   "enum_fields" :
   [
    {
     "enum_field_value" : 1,
     "name" : "android::trait_trivial_ctor<short>::value"
    }
   ],
   "linker_set_key" : "_ZTIN7android18trait_trivial_ctorIsE6$valueE",
   "name" : "android::trait_trivial_ctor<short>::(unnamed)",
   "self_type" : "_ZTIN7android18trait_trivial_ctorIsE6$valueE#ODR:out/soong/.intermediates/system/core/libutils/binder/libutils_binder/android_vendor_arm64_armv8-a_cortex-a53_static_afdo-libutils/obj/system/core/libutils/binder/RefBase.sdump",
   "size" : 4,
   "source_file" : "system/core/libutils/binder/include/utils/TypeHelpers.h",
   "underlying_type" : "_ZTIj"
  },
  {
   "alignment" : 4,
   "enum_fields" :
   [
    {
     "enum_field_value" : 1,
     "name" : "android::trait_trivial_ctor<unsigned short>::value"
    }
   ],
   "linker_set_key" : "_ZTIN7android18trait_trivial_ctorItE6$valueE",
   "name" : "android::trait_trivial_ctor<unsigned short>::(unnamed)",
   "size" : 4,
   "source_file" : "system/core/libutils/include/utils/TypeHelpers.h",
   "underlying_type" : "_ZTIj"
  },
  {
   "alignment" : 4,
   "enum_fields" :
   [
    {
     "enum_field_value" : 1,
     "name" : "android::trait_trivial_ctor<unsigned short>::value"
    }
   ],
   "linker_set_key" : "_ZTIN7android18trait_trivial_ctorItE6$valueE",
   "name" : "android::trait_trivial_ctor<unsigned short>::(unnamed)",
   "self_type" : "_ZTIN7android18trait_trivial_ctorItE6$valueE#ODR:out/soong/.intermediates/system/core/libutils/binder/libutils_binder/android_vendor_arm64_armv8-a_cortex-a53_static_afdo-libutils/obj/system/core/libutils/binder/RefBase.sdump",
   "size" : 4,
   "source_file" : "system/core/libutils/binder/include/utils/TypeHelpers.h",
   "underlying_type" : "_ZTIj"
  },
  {
   "alignment" : 4,
   "enum_fields" :
   [
    {
     "enum_field_value" : 1,
     "name" : "android::trait_trivial_ctor<void>::value"
    }
   ],
   "linker_set_key" : "_ZTIN7android18trait_trivial_ctorIvE6$valueE",
   "name" : "android::trait_trivial_ctor<void>::(unnamed)",
   "size" : 4,
   "source_file" : "system/core/libutils/include/utils/TypeHelpers.h",
   "underlying_type" : "_ZTIj"
  },
  {
   "alignment" : 4,
   "enum_fields" :
   [
    {
     "enum_field_value" : 1,
     "name" : "android::trait_trivial_ctor<void>::value"
    }
   ],
   "linker_set_key" : "_ZTIN7android18trait_trivial_ctorIvE6$valueE",
   "name" : "android::trait_trivial_ctor<void>::(unnamed)",
   "self_type" : "_ZTIN7android18trait_trivial_ctorIvE6$valueE#ODR:out/soong/.intermediates/system/core/libutils/binder/libutils_binder/android_vendor_arm64_armv8-a_cortex-a53_static_afdo-libutils/obj/system/core/libutils/binder/RefBase.sdump",
   "size" : 4,
   "source_file" : "system/core/libutils/binder/include/utils/TypeHelpers.h",
   "underlying_type" : "_ZTIj"
  },
  {
   "alignment" : 4,
   "enum_fields" :
   [
    {
     "enum_field_value" : 1,
     "name" : "android::trait_trivial_ctor<long long>::value"
    }
   ],
   "linker_set_key" : "_ZTIN7android18trait_trivial_ctorIxE6$valueE",
   "name" : "android::trait_trivial_ctor<long long>::(unnamed)",
   "size" : 4,
   "source_file" : "system/core/libutils/include/utils/TypeHelpers.h",
   "underlying_type" : "_ZTIj"
  },
  {
   "alignment" : 4,
   "enum_fields" :
   [
    {
     "enum_field_value" : 1,
     "name" : "android::trait_trivial_ctor<long long>::value"
    }
   ],
   "linker_set_key" : "_ZTIN7android18trait_trivial_ctorIxE6$valueE",
   "name" : "android::trait_trivial_ctor<long long>::(unnamed)",
   "self_type" : "_ZTIN7android18trait_trivial_ctorIxE6$valueE#ODR:out/soong/.intermediates/system/core/libutils/binder/libutils_binder/android_vendor_arm64_armv8-a_cortex-a53_static_afdo-libutils/obj/system/core/libutils/binder/RefBase.sdump",
   "size" : 4,
   "source_file" : "system/core/libutils/binder/include/utils/TypeHelpers.h",
   "underlying_type" : "_ZTIj"
  },
  {
   "alignment" : 4,
   "enum_fields" :
   [
    {
     "enum_field_value" : 1,
     "name" : "android::trait_trivial_ctor<unsigned long long>::value"
    }
   ],
   "linker_set_key" : "_ZTIN7android18trait_trivial_ctorIyE6$valueE",
   "name" : "android::trait_trivial_ctor<unsigned long long>::(unnamed)",
   "size" : 4,
   "source_file" : "system/core/libutils/include/utils/TypeHelpers.h",
   "underlying_type" : "_ZTIj"
  },
  {
   "alignment" : 4,
   "enum_fields" :
   [
    {
     "enum_field_value" : 1,
     "name" : "android::trait_trivial_ctor<unsigned long long>::value"
    }
   ],
   "linker_set_key" : "_ZTIN7android18trait_trivial_ctorIyE6$valueE",
   "name" : "android::trait_trivial_ctor<unsigned long long>::(unnamed)",
   "self_type" : "_ZTIN7android18trait_trivial_ctorIyE6$valueE#ODR:out/soong/.intermediates/system/core/libutils/binder/libutils_binder/android_vendor_arm64_armv8-a_cortex-a53_static_afdo-libutils/obj/system/core/libutils/binder/RefBase.sdump",
   "size" : 4,
   "source_file" : "system/core/libutils/binder/include/utils/TypeHelpers.h",
   "underlying_type" : "_ZTIj"
  },
  {
   "alignment" : 4,
   "enum_fields" :
   [
    {
     "enum_field_value" : 0,
     "name" : "android::trait_trivial_dtor<android::sysprop_change_callback_info>::value"
    }
   ],
   "linker_set_key" : "_ZTIN7android18trait_trivial_dtorINS_28sysprop_change_callback_infoEE6$valueE",
   "name" : "android::trait_trivial_dtor<android::sysprop_change_callback_info>::(unnamed)",
   "size" : 4,
   "source_file" : "system/core/libutils/include/utils/TypeHelpers.h",
   "underlying_type" : "_ZTIj"
  },
  {
   "alignment" : 4,
   "enum_fields" :
   [
    {
     "enum_field_value" : 0,
     "name" : "android::trait_trivial_dtor<android::Looper::MessageEnvelope>::value"
    }
   ],
   "linker_set_key" : "_ZTIN7android18trait_trivial_dtorINS_6Looper15MessageEnvelopeEE6$valueE",
   "name" : "android::trait_trivial_dtor<android::Looper::MessageEnvelope>::(unnamed)",
   "size" : 4,
   "source_file" : "system/core/libutils/include/utils/TypeHelpers.h",
   "underlying_type" : "_ZTIj"
  },
  {
   "alignment" : 4,
   "enum_fields" :
   [
    {
     "enum_field_value" : 0,
     "name" : "android::trait_trivial_dtor<android::Looper::Response>::value"
    }
   ],
   "linker_set_key" : "_ZTIN7android18trait_trivial_dtorINS_6Looper8ResponseEE6$valueE",
   "name" : "android::trait_trivial_dtor<android::Looper::Response>::(unnamed)",
   "size" : 4,
   "source_file" : "system/core/libutils/include/utils/TypeHelpers.h",
   "underlying_type" : "_ZTIj"
  },
  {
   "alignment" : 4,
   "enum_fields" :
   [
    {
     "enum_field_value" : 1,
     "name" : "android::trait_trivial_dtor<bool>::value"
    }
   ],
   "linker_set_key" : "_ZTIN7android18trait_trivial_dtorIbE6$valueE",
   "name" : "android::trait_trivial_dtor<bool>::(unnamed)",
   "size" : 4,
   "source_file" : "system/core/libutils/include/utils/TypeHelpers.h",
   "underlying_type" : "_ZTIj"
  },
  {
   "alignment" : 4,
   "enum_fields" :
   [
    {
     "enum_field_value" : 1,
     "name" : "android::trait_trivial_dtor<bool>::value"
    }
   ],
   "linker_set_key" : "_ZTIN7android18trait_trivial_dtorIbE6$valueE",
   "name" : "android::trait_trivial_dtor<bool>::(unnamed)",
   "self_type" : "_ZTIN7android18trait_trivial_dtorIbE6$valueE#ODR:out/soong/.intermediates/system/core/libutils/binder/libutils_binder/android_vendor_arm64_armv8-a_cortex-a53_static_afdo-libutils/obj/system/core/libutils/binder/RefBase.sdump",
   "size" : 4,
   "source_file" : "system/core/libutils/binder/include/utils/TypeHelpers.h",
   "underlying_type" : "_ZTIj"
  },
  {
   "alignment" : 4,
   "enum_fields" :
   [
    {
     "enum_field_value" : 1,
     "name" : "android::trait_trivial_dtor<char>::value"
    }
   ],
   "linker_set_key" : "_ZTIN7android18trait_trivial_dtorIcE6$valueE",
   "name" : "android::trait_trivial_dtor<char>::(unnamed)",
   "size" : 4,
   "source_file" : "system/core/libutils/include/utils/TypeHelpers.h",
   "underlying_type" : "_ZTIj"
  },
  {
   "alignment" : 4,
   "enum_fields" :
   [
    {
     "enum_field_value" : 1,
     "name" : "android::trait_trivial_dtor<char>::value"
    }
   ],
   "linker_set_key" : "_ZTIN7android18trait_trivial_dtorIcE6$valueE",
   "name" : "android::trait_trivial_dtor<char>::(unnamed)",
   "self_type" : "_ZTIN7android18trait_trivial_dtorIcE6$valueE#ODR:out/soong/.intermediates/system/core/libutils/binder/libutils_binder/android_vendor_arm64_armv8-a_cortex-a53_static_afdo-libutils/obj/system/core/libutils/binder/RefBase.sdump",
   "size" : 4,
   "source_file" : "system/core/libutils/binder/include/utils/TypeHelpers.h",
   "underlying_type" : "_ZTIj"
  },
  {
   "alignment" : 4,
   "enum_fields" :
   [
    {
     "enum_field_value" : 1,
     "name" : "android::trait_trivial_dtor<double>::value"
    }
   ],
   "linker_set_key" : "_ZTIN7android18trait_trivial_dtorIdE6$valueE",
   "name" : "android::trait_trivial_dtor<double>::(unnamed)",
   "size" : 4,
   "source_file" : "system/core/libutils/include/utils/TypeHelpers.h",
   "underlying_type" : "_ZTIj"
  },
  {
   "alignment" : 4,
   "enum_fields" :
   [
    {
     "enum_field_value" : 1,
     "name" : "android::trait_trivial_dtor<double>::value"
    }
   ],
   "linker_set_key" : "_ZTIN7android18trait_trivial_dtorIdE6$valueE",
   "name" : "android::trait_trivial_dtor<double>::(unnamed)",
   "self_type" : "_ZTIN7android18trait_trivial_dtorIdE6$valueE#ODR:out/soong/.intermediates/system/core/libutils/binder/libutils_binder/android_vendor_arm64_armv8-a_cortex-a53_static_afdo-libutils/obj/system/core/libutils/binder/RefBase.sdump",
   "size" : 4,
   "source_file" : "system/core/libutils/binder/include/utils/TypeHelpers.h",
   "underlying_type" : "_ZTIj"
  },
  {
   "alignment" : 4,
   "enum_fields" :
   [
    {
     "enum_field_value" : 1,
     "name" : "android::trait_trivial_dtor<float>::value"
    }
   ],
   "linker_set_key" : "_ZTIN7android18trait_trivial_dtorIfE6$valueE",
   "name" : "android::trait_trivial_dtor<float>::(unnamed)",
   "size" : 4,
   "source_file" : "system/core/libutils/include/utils/TypeHelpers.h",
   "underlying_type" : "_ZTIj"
  },
  {
   "alignment" : 4,
   "enum_fields" :
   [
    {
     "enum_field_value" : 1,
     "name" : "android::trait_trivial_dtor<float>::value"
    }
   ],
   "linker_set_key" : "_ZTIN7android18trait_trivial_dtorIfE6$valueE",
   "name" : "android::trait_trivial_dtor<float>::(unnamed)",
   "self_type" : "_ZTIN7android18trait_trivial_dtorIfE6$valueE#ODR:out/soong/.intermediates/system/core/libutils/binder/libutils_binder/android_vendor_arm64_armv8-a_cortex-a53_static_afdo-libutils/obj/system/core/libutils/binder/RefBase.sdump",
   "size" : 4,
   "source_file" : "system/core/libutils/binder/include/utils/TypeHelpers.h",
   "underlying_type" : "_ZTIj"
  },
  {
   "alignment" : 4,
   "enum_fields" :
   [
    {
     "enum_field_value" : 1,
     "name" : "android::trait_trivial_dtor<unsigned char>::value"
    }
   ],
   "linker_set_key" : "_ZTIN7android18trait_trivial_dtorIhE6$valueE",
   "name" : "android::trait_trivial_dtor<unsigned char>::(unnamed)",
   "size" : 4,
   "source_file" : "system/core/libutils/include/utils/TypeHelpers.h",
   "underlying_type" : "_ZTIj"
  },
  {
   "alignment" : 4,
   "enum_fields" :
   [
    {
     "enum_field_value" : 1,
     "name" : "android::trait_trivial_dtor<unsigned char>::value"
    }
   ],
   "linker_set_key" : "_ZTIN7android18trait_trivial_dtorIhE6$valueE",
   "name" : "android::trait_trivial_dtor<unsigned char>::(unnamed)",
   "self_type" : "_ZTIN7android18trait_trivial_dtorIhE6$valueE#ODR:out/soong/.intermediates/system/core/libutils/binder/libutils_binder/android_vendor_arm64_armv8-a_cortex-a53_static_afdo-libutils/obj/system/core/libutils/binder/RefBase.sdump",
   "size" : 4,
   "source_file" : "system/core/libutils/binder/include/utils/TypeHelpers.h",
   "underlying_type" : "_ZTIj"
  },
  {
   "alignment" : 4,
   "enum_fields" :
   [
    {
     "enum_field_value" : 1,
     "name" : "android::trait_trivial_dtor<int>::value"
    }
   ],
   "linker_set_key" : "_ZTIN7android18trait_trivial_dtorIiE6$valueE",
   "name" : "android::trait_trivial_dtor<int>::(unnamed)",
   "size" : 4,
   "source_file" : "system/core/libutils/include/utils/TypeHelpers.h",
   "underlying_type" : "_ZTIj"
  },
  {
   "alignment" : 4,
   "enum_fields" :
   [
    {
     "enum_field_value" : 1,
     "name" : "android::trait_trivial_dtor<int>::value"
    }
   ],
   "linker_set_key" : "_ZTIN7android18trait_trivial_dtorIiE6$valueE",
   "name" : "android::trait_trivial_dtor<int>::(unnamed)",
   "self_type" : "_ZTIN7android18trait_trivial_dtorIiE6$valueE#ODR:out/soong/.intermediates/system/core/libutils/binder/libutils_binder/android_vendor_arm64_armv8-a_cortex-a53_static_afdo-libutils/obj/system/core/libutils/binder/RefBase.sdump",
   "size" : 4,
   "source_file" : "system/core/libutils/binder/include/utils/TypeHelpers.h",
   "underlying_type" : "_ZTIj"
  },
  {
   "alignment" : 4,
   "enum_fields" :
   [
    {
     "enum_field_value" : 1,
     "name" : "android::trait_trivial_dtor<unsigned int>::value"
    }
   ],
   "linker_set_key" : "_ZTIN7android18trait_trivial_dtorIjE6$valueE",
   "name" : "android::trait_trivial_dtor<unsigned int>::(unnamed)",
   "size" : 4,
   "source_file" : "system/core/libutils/include/utils/TypeHelpers.h",
   "underlying_type" : "_ZTIj"
  },
  {
   "alignment" : 4,
   "enum_fields" :
   [
    {
     "enum_field_value" : 1,
     "name" : "android::trait_trivial_dtor<unsigned int>::value"
    }
   ],
   "linker_set_key" : "_ZTIN7android18trait_trivial_dtorIjE6$valueE",
   "name" : "android::trait_trivial_dtor<unsigned int>::(unnamed)",
   "self_type" : "_ZTIN7android18trait_trivial_dtorIjE6$valueE#ODR:out/soong/.intermediates/system/core/libutils/binder/libutils_binder/android_vendor_arm64_armv8-a_cortex-a53_static_afdo-libutils/obj/system/core/libutils/binder/RefBase.sdump",
   "size" : 4,
   "source_file" : "system/core/libutils/binder/include/utils/TypeHelpers.h",
   "underlying_type" : "_ZTIj"
  },
  {
   "alignment" : 4,
   "enum_fields" :
   [
    {
     "enum_field_value" : 1,
     "name" : "android::trait_trivial_dtor<long>::value"
    }
   ],
   "linker_set_key" : "_ZTIN7android18trait_trivial_dtorIlE6$valueE",
   "name" : "android::trait_trivial_dtor<long>::(unnamed)",
   "size" : 4,
   "source_file" : "system/core/libutils/include/utils/TypeHelpers.h",
   "underlying_type" : "_ZTIj"
  },
  {
   "alignment" : 4,
   "enum_fields" :
   [
    {
     "enum_field_value" : 1,
     "name" : "android::trait_trivial_dtor<long>::value"
    }
   ],
   "linker_set_key" : "_ZTIN7android18trait_trivial_dtorIlE6$valueE",
   "name" : "android::trait_trivial_dtor<long>::(unnamed)",
   "self_type" : "_ZTIN7android18trait_trivial_dtorIlE6$valueE#ODR:out/soong/.intermediates/system/core/libutils/binder/libutils_binder/android_vendor_arm64_armv8-a_cortex-a53_static_afdo-libutils/obj/system/core/libutils/binder/RefBase.sdump",
   "size" : 4,
   "source_file" : "system/core/libutils/binder/include/utils/TypeHelpers.h",
   "underlying_type" : "_ZTIj"
  },
  {
   "alignment" : 4,
   "enum_fields" :
   [
    {
     "enum_field_value" : 1,
     "name" : "android::trait_trivial_dtor<unsigned long>::value"
    }
   ],
   "linker_set_key" : "_ZTIN7android18trait_trivial_dtorImE6$valueE",
   "name" : "android::trait_trivial_dtor<unsigned long>::(unnamed)",
   "size" : 4,
   "source_file" : "system/core/libutils/include/utils/TypeHelpers.h",
   "underlying_type" : "_ZTIj"
  },
  {
   "alignment" : 4,
   "enum_fields" :
   [
    {
     "enum_field_value" : 1,
     "name" : "android::trait_trivial_dtor<unsigned long>::value"
    }
   ],
   "linker_set_key" : "_ZTIN7android18trait_trivial_dtorImE6$valueE",
   "name" : "android::trait_trivial_dtor<unsigned long>::(unnamed)",
   "self_type" : "_ZTIN7android18trait_trivial_dtorImE6$valueE#ODR:out/soong/.intermediates/system/core/libutils/binder/libutils_binder/android_vendor_arm64_armv8-a_cortex-a53_static_afdo-libutils/obj/system/core/libutils/binder/RefBase.sdump",
   "size" : 4,
   "source_file" : "system/core/libutils/binder/include/utils/TypeHelpers.h",
   "underlying_type" : "_ZTIj"
  },
  {
   "alignment" : 4,
   "enum_fields" :
   [
    {
     "enum_field_value" : 1,
     "name" : "android::trait_trivial_dtor<short>::value"
    }
   ],
   "linker_set_key" : "_ZTIN7android18trait_trivial_dtorIsE6$valueE",
   "name" : "android::trait_trivial_dtor<short>::(unnamed)",
   "size" : 4,
   "source_file" : "system/core/libutils/include/utils/TypeHelpers.h",
   "underlying_type" : "_ZTIj"
  },
  {
   "alignment" : 4,
   "enum_fields" :
   [
    {
     "enum_field_value" : 1,
     "name" : "android::trait_trivial_dtor<short>::value"
    }
   ],
   "linker_set_key" : "_ZTIN7android18trait_trivial_dtorIsE6$valueE",
   "name" : "android::trait_trivial_dtor<short>::(unnamed)",
   "self_type" : "_ZTIN7android18trait_trivial_dtorIsE6$valueE#ODR:out/soong/.intermediates/system/core/libutils/binder/libutils_binder/android_vendor_arm64_armv8-a_cortex-a53_static_afdo-libutils/obj/system/core/libutils/binder/RefBase.sdump",
   "size" : 4,
   "source_file" : "system/core/libutils/binder/include/utils/TypeHelpers.h",
   "underlying_type" : "_ZTIj"
  },
  {
   "alignment" : 4,
   "enum_fields" :
   [
    {
     "enum_field_value" : 1,
     "name" : "android::trait_trivial_dtor<unsigned short>::value"
    }
   ],
   "linker_set_key" : "_ZTIN7android18trait_trivial_dtorItE6$valueE",
   "name" : "android::trait_trivial_dtor<unsigned short>::(unnamed)",
   "size" : 4,
   "source_file" : "system/core/libutils/include/utils/TypeHelpers.h",
   "underlying_type" : "_ZTIj"
  },
  {
   "alignment" : 4,
   "enum_fields" :
   [
    {
     "enum_field_value" : 1,
     "name" : "android::trait_trivial_dtor<unsigned short>::value"
    }
   ],
   "linker_set_key" : "_ZTIN7android18trait_trivial_dtorItE6$valueE",
   "name" : "android::trait_trivial_dtor<unsigned short>::(unnamed)",
   "self_type" : "_ZTIN7android18trait_trivial_dtorItE6$valueE#ODR:out/soong/.intermediates/system/core/libutils/binder/libutils_binder/android_vendor_arm64_armv8-a_cortex-a53_static_afdo-libutils/obj/system/core/libutils/binder/RefBase.sdump",
   "size" : 4,
   "source_file" : "system/core/libutils/binder/include/utils/TypeHelpers.h",
   "underlying_type" : "_ZTIj"
  },
  {
   "alignment" : 4,
   "enum_fields" :
   [
    {
     "enum_field_value" : 1,
     "name" : "android::trait_trivial_dtor<void>::value"
    }
   ],
   "linker_set_key" : "_ZTIN7android18trait_trivial_dtorIvE6$valueE",
   "name" : "android::trait_trivial_dtor<void>::(unnamed)",
   "size" : 4,
   "source_file" : "system/core/libutils/include/utils/TypeHelpers.h",
   "underlying_type" : "_ZTIj"
  },
  {
   "alignment" : 4,
   "enum_fields" :
   [
    {
     "enum_field_value" : 1,
     "name" : "android::trait_trivial_dtor<void>::value"
    }
   ],
   "linker_set_key" : "_ZTIN7android18trait_trivial_dtorIvE6$valueE",
   "name" : "android::trait_trivial_dtor<void>::(unnamed)",
   "self_type" : "_ZTIN7android18trait_trivial_dtorIvE6$valueE#ODR:out/soong/.intermediates/system/core/libutils/binder/libutils_binder/android_vendor_arm64_armv8-a_cortex-a53_static_afdo-libutils/obj/system/core/libutils/binder/RefBase.sdump",
   "size" : 4,
   "source_file" : "system/core/libutils/binder/include/utils/TypeHelpers.h",
   "underlying_type" : "_ZTIj"
  },
  {
   "alignment" : 4,
   "enum_fields" :
   [
    {
     "enum_field_value" : 1,
     "name" : "android::trait_trivial_dtor<long long>::value"
    }
   ],
   "linker_set_key" : "_ZTIN7android18trait_trivial_dtorIxE6$valueE",
   "name" : "android::trait_trivial_dtor<long long>::(unnamed)",
   "size" : 4,
   "source_file" : "system/core/libutils/include/utils/TypeHelpers.h",
   "underlying_type" : "_ZTIj"
  },
  {
   "alignment" : 4,
   "enum_fields" :
   [
    {
     "enum_field_value" : 1,
     "name" : "android::trait_trivial_dtor<long long>::value"
    }
   ],
   "linker_set_key" : "_ZTIN7android18trait_trivial_dtorIxE6$valueE",
   "name" : "android::trait_trivial_dtor<long long>::(unnamed)",
   "self_type" : "_ZTIN7android18trait_trivial_dtorIxE6$valueE#ODR:out/soong/.intermediates/system/core/libutils/binder/libutils_binder/android_vendor_arm64_armv8-a_cortex-a53_static_afdo-libutils/obj/system/core/libutils/binder/RefBase.sdump",
   "size" : 4,
   "source_file" : "system/core/libutils/binder/include/utils/TypeHelpers.h",
   "underlying_type" : "_ZTIj"
  },
  {
   "alignment" : 4,
   "enum_fields" :
   [
    {
     "enum_field_value" : 1,
     "name" : "android::trait_trivial_dtor<unsigned long long>::value"
    }
   ],
   "linker_set_key" : "_ZTIN7android18trait_trivial_dtorIyE6$valueE",
   "name" : "android::trait_trivial_dtor<unsigned long long>::(unnamed)",
   "size" : 4,
   "source_file" : "system/core/libutils/include/utils/TypeHelpers.h",
   "underlying_type" : "_ZTIj"
  },
  {
   "alignment" : 4,
   "enum_fields" :
   [
    {
     "enum_field_value" : 1,
     "name" : "android::trait_trivial_dtor<unsigned long long>::value"
    }
   ],
   "linker_set_key" : "_ZTIN7android18trait_trivial_dtorIyE6$valueE",
   "name" : "android::trait_trivial_dtor<unsigned long long>::(unnamed)",
   "self_type" : "_ZTIN7android18trait_trivial_dtorIyE6$valueE#ODR:out/soong/.intermediates/system/core/libutils/binder/libutils_binder/android_vendor_arm64_armv8-a_cortex-a53_static_afdo-libutils/obj/system/core/libutils/binder/RefBase.sdump",
   "size" : 4,
   "source_file" : "system/core/libutils/binder/include/utils/TypeHelpers.h",
   "underlying_type" : "_ZTIj"
  },
  {
   "alignment" : 4,
   "enum_fields" :
   [
    {
     "enum_field_value" : 0,
     "name" : "android::trait_trivial_move<android::sysprop_change_callback_info>::value"
    }
   ],
   "linker_set_key" : "_ZTIN7android18trait_trivial_moveINS_28sysprop_change_callback_infoEE6$valueE",
   "name" : "android::trait_trivial_move<android::sysprop_change_callback_info>::(unnamed)",
   "size" : 4,
   "source_file" : "system/core/libutils/include/utils/TypeHelpers.h",
   "underlying_type" : "_ZTIj"
  },
  {
   "alignment" : 4,
   "enum_fields" :
   [
    {
     "enum_field_value" : 0,
     "name" : "android::trait_trivial_move<android::Looper::MessageEnvelope>::value"
    }
   ],
   "linker_set_key" : "_ZTIN7android18trait_trivial_moveINS_6Looper15MessageEnvelopeEE6$valueE",
   "name" : "android::trait_trivial_move<android::Looper::MessageEnvelope>::(unnamed)",
   "size" : 4,
   "source_file" : "system/core/libutils/include/utils/TypeHelpers.h",
   "underlying_type" : "_ZTIj"
  },
  {
   "alignment" : 4,
   "enum_fields" :
   [
    {
     "enum_field_value" : 0,
     "name" : "android::trait_trivial_move<android::Looper::Response>::value"
    }
   ],
   "linker_set_key" : "_ZTIN7android18trait_trivial_moveINS_6Looper8ResponseEE6$valueE",
   "name" : "android::trait_trivial_move<android::Looper::Response>::(unnamed)",
   "size" : 4,
   "source_file" : "system/core/libutils/include/utils/TypeHelpers.h",
   "underlying_type" : "_ZTIj"
  },
  {
   "alignment" : 4,
   "enum_fields" :
   [
    {
     "enum_field_value" : 1,
     "name" : "android::trait_trivial_move<android::String8>::value"
    }
   ],
   "linker_set_key" : "_ZTIN7android18trait_trivial_moveINS_7String8EE6$valueE",
   "name" : "android::trait_trivial_move<android::String8>::(unnamed)",
   "size" : 4,
   "source_file" : "system/core/libutils/include/utils/String8.h",
   "underlying_type" : "_ZTIj"
  },
  {
   "alignment" : 4,
   "enum_fields" :
   [
    {
     "enum_field_value" : 1,
     "name" : "android::trait_trivial_move<android::String8>::value"
    }
   ],
   "linker_set_key" : "_ZTIN7android18trait_trivial_moveINS_7String8EE6$valueE",
   "name" : "android::trait_trivial_move<android::String8>::(unnamed)",
   "self_type" : "_ZTIN7android18trait_trivial_moveINS_7String8EE6$valueE#ODR:out/soong/.intermediates/system/core/libutils/binder/libutils_binder/android_vendor_arm64_armv8-a_cortex-a53_static_afdo-libutils/obj/system/core/libutils/binder/RefBase.sdump",
   "size" : 4,
   "source_file" : "system/core/libutils/binder/include/utils/String8.h",
   "underlying_type" : "_ZTIj"
  },
  {
   "alignment" : 4,
   "enum_fields" :
   [
    {
     "enum_field_value" : 1,
     "name" : "android::trait_trivial_move<android::String16>::value"
    }
   ],
   "linker_set_key" : "_ZTIN7android18trait_trivial_moveINS_8String16EE6$valueE",
   "name" : "android::trait_trivial_move<android::String16>::(unnamed)",
   "size" : 4,
   "source_file" : "system/core/libutils/binder/include/utils/String16.h",
   "underlying_type" : "_ZTIj"
  },
  {
   "alignment" : 4,
   "enum_fields" :
   [
    {
     "enum_field_value" : 1,
     "name" : "android::trait_trivial_move<bool>::value"
    }
   ],
   "linker_set_key" : "_ZTIN7android18trait_trivial_moveIbE6$valueE",
   "name" : "android::trait_trivial_move<bool>::(unnamed)",
   "size" : 4,
   "source_file" : "system/core/libutils/include/utils/TypeHelpers.h",
   "underlying_type" : "_ZTIj"
  },
  {
   "alignment" : 4,
   "enum_fields" :
   [
    {
     "enum_field_value" : 1,
     "name" : "android::trait_trivial_move<bool>::value"
    }
   ],
   "linker_set_key" : "_ZTIN7android18trait_trivial_moveIbE6$valueE",
   "name" : "android::trait_trivial_move<bool>::(unnamed)",
   "self_type" : "_ZTIN7android18trait_trivial_moveIbE6$valueE#ODR:out/soong/.intermediates/system/core/libutils/binder/libutils_binder/android_vendor_arm64_armv8-a_cortex-a53_static_afdo-libutils/obj/system/core/libutils/binder/RefBase.sdump",
   "size" : 4,
   "source_file" : "system/core/libutils/binder/include/utils/TypeHelpers.h",
   "underlying_type" : "_ZTIj"
  },
  {
   "alignment" : 4,
   "enum_fields" :
   [
    {
     "enum_field_value" : 1,
     "name" : "android::trait_trivial_move<char>::value"
    }
   ],
   "linker_set_key" : "_ZTIN7android18trait_trivial_moveIcE6$valueE",
   "name" : "android::trait_trivial_move<char>::(unnamed)",
   "size" : 4,
   "source_file" : "system/core/libutils/include/utils/TypeHelpers.h",
   "underlying_type" : "_ZTIj"
  },
  {
   "alignment" : 4,
   "enum_fields" :
   [
    {
     "enum_field_value" : 1,
     "name" : "android::trait_trivial_move<char>::value"
    }
   ],
   "linker_set_key" : "_ZTIN7android18trait_trivial_moveIcE6$valueE",
   "name" : "android::trait_trivial_move<char>::(unnamed)",
   "self_type" : "_ZTIN7android18trait_trivial_moveIcE6$valueE#ODR:out/soong/.intermediates/system/core/libutils/binder/libutils_binder/android_vendor_arm64_armv8-a_cortex-a53_static_afdo-libutils/obj/system/core/libutils/binder/RefBase.sdump",
   "size" : 4,
   "source_file" : "system/core/libutils/binder/include/utils/TypeHelpers.h",
   "underlying_type" : "_ZTIj"
  },
  {
   "alignment" : 4,
   "enum_fields" :
   [
    {
     "enum_field_value" : 1,
     "name" : "android::trait_trivial_move<double>::value"
    }
   ],
   "linker_set_key" : "_ZTIN7android18trait_trivial_moveIdE6$valueE",
   "name" : "android::trait_trivial_move<double>::(unnamed)",
   "size" : 4,
   "source_file" : "system/core/libutils/include/utils/TypeHelpers.h",
   "underlying_type" : "_ZTIj"
  },
  {
   "alignment" : 4,
   "enum_fields" :
   [
    {
     "enum_field_value" : 1,
     "name" : "android::trait_trivial_move<double>::value"
    }
   ],
   "linker_set_key" : "_ZTIN7android18trait_trivial_moveIdE6$valueE",
   "name" : "android::trait_trivial_move<double>::(unnamed)",
   "self_type" : "_ZTIN7android18trait_trivial_moveIdE6$valueE#ODR:out/soong/.intermediates/system/core/libutils/binder/libutils_binder/android_vendor_arm64_armv8-a_cortex-a53_static_afdo-libutils/obj/system/core/libutils/binder/RefBase.sdump",
   "size" : 4,
   "source_file" : "system/core/libutils/binder/include/utils/TypeHelpers.h",
   "underlying_type" : "_ZTIj"
  },
  {
   "alignment" : 4,
   "enum_fields" :
   [
    {
     "enum_field_value" : 1,
     "name" : "android::trait_trivial_move<float>::value"
    }
   ],
   "linker_set_key" : "_ZTIN7android18trait_trivial_moveIfE6$valueE",
   "name" : "android::trait_trivial_move<float>::(unnamed)",
   "size" : 4,
   "source_file" : "system/core/libutils/include/utils/TypeHelpers.h",
   "underlying_type" : "_ZTIj"
  },
  {
   "alignment" : 4,
   "enum_fields" :
   [
    {
     "enum_field_value" : 1,
     "name" : "android::trait_trivial_move<float>::value"
    }
   ],
   "linker_set_key" : "_ZTIN7android18trait_trivial_moveIfE6$valueE",
   "name" : "android::trait_trivial_move<float>::(unnamed)",
   "self_type" : "_ZTIN7android18trait_trivial_moveIfE6$valueE#ODR:out/soong/.intermediates/system/core/libutils/binder/libutils_binder/android_vendor_arm64_armv8-a_cortex-a53_static_afdo-libutils/obj/system/core/libutils/binder/RefBase.sdump",
   "size" : 4,
   "source_file" : "system/core/libutils/binder/include/utils/TypeHelpers.h",
   "underlying_type" : "_ZTIj"
  },
  {
   "alignment" : 4,
   "enum_fields" :
   [
    {
     "enum_field_value" : 1,
     "name" : "android::trait_trivial_move<unsigned char>::value"
    }
   ],
   "linker_set_key" : "_ZTIN7android18trait_trivial_moveIhE6$valueE",
   "name" : "android::trait_trivial_move<unsigned char>::(unnamed)",
   "size" : 4,
   "source_file" : "system/core/libutils/include/utils/TypeHelpers.h",
   "underlying_type" : "_ZTIj"
  },
  {
   "alignment" : 4,
   "enum_fields" :
   [
    {
     "enum_field_value" : 1,
     "name" : "android::trait_trivial_move<unsigned char>::value"
    }
   ],
   "linker_set_key" : "_ZTIN7android18trait_trivial_moveIhE6$valueE",
   "name" : "android::trait_trivial_move<unsigned char>::(unnamed)",
   "self_type" : "_ZTIN7android18trait_trivial_moveIhE6$valueE#ODR:out/soong/.intermediates/system/core/libutils/binder/libutils_binder/android_vendor_arm64_armv8-a_cortex-a53_static_afdo-libutils/obj/system/core/libutils/binder/RefBase.sdump",
   "size" : 4,
   "source_file" : "system/core/libutils/binder/include/utils/TypeHelpers.h",
   "underlying_type" : "_ZTIj"
  },
  {
   "alignment" : 4,
   "enum_fields" :
   [
    {
     "enum_field_value" : 1,
     "name" : "android::trait_trivial_move<int>::value"
    }
   ],
   "linker_set_key" : "_ZTIN7android18trait_trivial_moveIiE6$valueE",
   "name" : "android::trait_trivial_move<int>::(unnamed)",
   "size" : 4,
   "source_file" : "system/core/libutils/include/utils/TypeHelpers.h",
   "underlying_type" : "_ZTIj"
  },
  {
   "alignment" : 4,
   "enum_fields" :
   [
    {
     "enum_field_value" : 1,
     "name" : "android::trait_trivial_move<int>::value"
    }
   ],
   "linker_set_key" : "_ZTIN7android18trait_trivial_moveIiE6$valueE",
   "name" : "android::trait_trivial_move<int>::(unnamed)",
   "self_type" : "_ZTIN7android18trait_trivial_moveIiE6$valueE#ODR:out/soong/.intermediates/system/core/libutils/binder/libutils_binder/android_vendor_arm64_armv8-a_cortex-a53_static_afdo-libutils/obj/system/core/libutils/binder/RefBase.sdump",
   "size" : 4,
   "source_file" : "system/core/libutils/binder/include/utils/TypeHelpers.h",
   "underlying_type" : "_ZTIj"
  },
  {
   "alignment" : 4,
   "enum_fields" :
   [
    {
     "enum_field_value" : 1,
     "name" : "android::trait_trivial_move<unsigned int>::value"
    }
   ],
   "linker_set_key" : "_ZTIN7android18trait_trivial_moveIjE6$valueE",
   "name" : "android::trait_trivial_move<unsigned int>::(unnamed)",
   "size" : 4,
   "source_file" : "system/core/libutils/include/utils/TypeHelpers.h",
   "underlying_type" : "_ZTIj"
  },
  {
   "alignment" : 4,
   "enum_fields" :
   [
    {
     "enum_field_value" : 1,
     "name" : "android::trait_trivial_move<unsigned int>::value"
    }
   ],
   "linker_set_key" : "_ZTIN7android18trait_trivial_moveIjE6$valueE",
   "name" : "android::trait_trivial_move<unsigned int>::(unnamed)",
   "self_type" : "_ZTIN7android18trait_trivial_moveIjE6$valueE#ODR:out/soong/.intermediates/system/core/libutils/binder/libutils_binder/android_vendor_arm64_armv8-a_cortex-a53_static_afdo-libutils/obj/system/core/libutils/binder/RefBase.sdump",
   "size" : 4,
   "source_file" : "system/core/libutils/binder/include/utils/TypeHelpers.h",
   "underlying_type" : "_ZTIj"
  },
  {
   "alignment" : 4,
   "enum_fields" :
   [
    {
     "enum_field_value" : 1,
     "name" : "android::trait_trivial_move<long>::value"
    }
   ],
   "linker_set_key" : "_ZTIN7android18trait_trivial_moveIlE6$valueE",
   "name" : "android::trait_trivial_move<long>::(unnamed)",
   "size" : 4,
   "source_file" : "system/core/libutils/include/utils/TypeHelpers.h",
   "underlying_type" : "_ZTIj"
  },
  {
   "alignment" : 4,
   "enum_fields" :
   [
    {
     "enum_field_value" : 1,
     "name" : "android::trait_trivial_move<long>::value"
    }
   ],
   "linker_set_key" : "_ZTIN7android18trait_trivial_moveIlE6$valueE",
   "name" : "android::trait_trivial_move<long>::(unnamed)",
   "self_type" : "_ZTIN7android18trait_trivial_moveIlE6$valueE#ODR:out/soong/.intermediates/system/core/libutils/binder/libutils_binder/android_vendor_arm64_armv8-a_cortex-a53_static_afdo-libutils/obj/system/core/libutils/binder/RefBase.sdump",
   "size" : 4,
   "source_file" : "system/core/libutils/binder/include/utils/TypeHelpers.h",
   "underlying_type" : "_ZTIj"
  },
  {
   "alignment" : 4,
   "enum_fields" :
   [
    {
     "enum_field_value" : 1,
     "name" : "android::trait_trivial_move<unsigned long>::value"
    }
   ],
   "linker_set_key" : "_ZTIN7android18trait_trivial_moveImE6$valueE",
   "name" : "android::trait_trivial_move<unsigned long>::(unnamed)",
   "size" : 4,
   "source_file" : "system/core/libutils/include/utils/TypeHelpers.h",
   "underlying_type" : "_ZTIj"
  },
  {
   "alignment" : 4,
   "enum_fields" :
   [
    {
     "enum_field_value" : 1,
     "name" : "android::trait_trivial_move<unsigned long>::value"
    }
   ],
   "linker_set_key" : "_ZTIN7android18trait_trivial_moveImE6$valueE",
   "name" : "android::trait_trivial_move<unsigned long>::(unnamed)",
   "self_type" : "_ZTIN7android18trait_trivial_moveImE6$valueE#ODR:out/soong/.intermediates/system/core/libutils/binder/libutils_binder/android_vendor_arm64_armv8-a_cortex-a53_static_afdo-libutils/obj/system/core/libutils/binder/RefBase.sdump",
   "size" : 4,
   "source_file" : "system/core/libutils/binder/include/utils/TypeHelpers.h",
   "underlying_type" : "_ZTIj"
  },
  {
   "alignment" : 4,
   "enum_fields" :
   [
    {
     "enum_field_value" : 1,
     "name" : "android::trait_trivial_move<short>::value"
    }
   ],
   "linker_set_key" : "_ZTIN7android18trait_trivial_moveIsE6$valueE",
   "name" : "android::trait_trivial_move<short>::(unnamed)",
   "size" : 4,
   "source_file" : "system/core/libutils/include/utils/TypeHelpers.h",
   "underlying_type" : "_ZTIj"
  },
  {
   "alignment" : 4,
   "enum_fields" :
   [
    {
     "enum_field_value" : 1,
     "name" : "android::trait_trivial_move<short>::value"
    }
   ],
   "linker_set_key" : "_ZTIN7android18trait_trivial_moveIsE6$valueE",
   "name" : "android::trait_trivial_move<short>::(unnamed)",
   "self_type" : "_ZTIN7android18trait_trivial_moveIsE6$valueE#ODR:out/soong/.intermediates/system/core/libutils/binder/libutils_binder/android_vendor_arm64_armv8-a_cortex-a53_static_afdo-libutils/obj/system/core/libutils/binder/RefBase.sdump",
   "size" : 4,
   "source_file" : "system/core/libutils/binder/include/utils/TypeHelpers.h",
   "underlying_type" : "_ZTIj"
  },
  {
   "alignment" : 4,
   "enum_fields" :
   [
    {
     "enum_field_value" : 1,
     "name" : "android::trait_trivial_move<unsigned short>::value"
    }
   ],
   "linker_set_key" : "_ZTIN7android18trait_trivial_moveItE6$valueE",
   "name" : "android::trait_trivial_move<unsigned short>::(unnamed)",
   "size" : 4,
   "source_file" : "system/core/libutils/include/utils/TypeHelpers.h",
   "underlying_type" : "_ZTIj"
  },
  {
   "alignment" : 4,
   "enum_fields" :
   [
    {
     "enum_field_value" : 1,
     "name" : "android::trait_trivial_move<unsigned short>::value"
    }
   ],
   "linker_set_key" : "_ZTIN7android18trait_trivial_moveItE6$valueE",
   "name" : "android::trait_trivial_move<unsigned short>::(unnamed)",
   "self_type" : "_ZTIN7android18trait_trivial_moveItE6$valueE#ODR:out/soong/.intermediates/system/core/libutils/binder/libutils_binder/android_vendor_arm64_armv8-a_cortex-a53_static_afdo-libutils/obj/system/core/libutils/binder/RefBase.sdump",
   "size" : 4,
   "source_file" : "system/core/libutils/binder/include/utils/TypeHelpers.h",
   "underlying_type" : "_ZTIj"
  },
  {
   "alignment" : 4,
   "enum_fields" :
   [
    {
     "enum_field_value" : 1,
     "name" : "android::trait_trivial_move<void>::value"
    }
   ],
   "linker_set_key" : "_ZTIN7android18trait_trivial_moveIvE6$valueE",
   "name" : "android::trait_trivial_move<void>::(unnamed)",
   "size" : 4,
   "source_file" : "system/core/libutils/include/utils/TypeHelpers.h",
   "underlying_type" : "_ZTIj"
  },
  {
   "alignment" : 4,
   "enum_fields" :
   [
    {
     "enum_field_value" : 1,
     "name" : "android::trait_trivial_move<void>::value"
    }
   ],
   "linker_set_key" : "_ZTIN7android18trait_trivial_moveIvE6$valueE",
   "name" : "android::trait_trivial_move<void>::(unnamed)",
   "self_type" : "_ZTIN7android18trait_trivial_moveIvE6$valueE#ODR:out/soong/.intermediates/system/core/libutils/binder/libutils_binder/android_vendor_arm64_armv8-a_cortex-a53_static_afdo-libutils/obj/system/core/libutils/binder/RefBase.sdump",
   "size" : 4,
   "source_file" : "system/core/libutils/binder/include/utils/TypeHelpers.h",
   "underlying_type" : "_ZTIj"
  },
  {
   "alignment" : 4,
   "enum_fields" :
   [
    {
     "enum_field_value" : 1,
     "name" : "android::trait_trivial_move<long long>::value"
    }
   ],
   "linker_set_key" : "_ZTIN7android18trait_trivial_moveIxE6$valueE",
   "name" : "android::trait_trivial_move<long long>::(unnamed)",
   "size" : 4,
   "source_file" : "system/core/libutils/include/utils/TypeHelpers.h",
   "underlying_type" : "_ZTIj"
  },
  {
   "alignment" : 4,
   "enum_fields" :
   [
    {
     "enum_field_value" : 1,
     "name" : "android::trait_trivial_move<long long>::value"
    }
   ],
   "linker_set_key" : "_ZTIN7android18trait_trivial_moveIxE6$valueE",
   "name" : "android::trait_trivial_move<long long>::(unnamed)",
   "self_type" : "_ZTIN7android18trait_trivial_moveIxE6$valueE#ODR:out/soong/.intermediates/system/core/libutils/binder/libutils_binder/android_vendor_arm64_armv8-a_cortex-a53_static_afdo-libutils/obj/system/core/libutils/binder/RefBase.sdump",
   "size" : 4,
   "source_file" : "system/core/libutils/binder/include/utils/TypeHelpers.h",
   "underlying_type" : "_ZTIj"
  },
  {
   "alignment" : 4,
   "enum_fields" :
   [
    {
     "enum_field_value" : 1,
     "name" : "android::trait_trivial_move<unsigned long long>::value"
    }
   ],
   "linker_set_key" : "_ZTIN7android18trait_trivial_moveIyE6$valueE",
   "name" : "android::trait_trivial_move<unsigned long long>::(unnamed)",
   "size" : 4,
   "source_file" : "system/core/libutils/include/utils/TypeHelpers.h",
   "underlying_type" : "_ZTIj"
  },
  {
   "alignment" : 4,
   "enum_fields" :
   [
    {
     "enum_field_value" : 1,
     "name" : "android::trait_trivial_move<unsigned long long>::value"
    }
   ],
   "linker_set_key" : "_ZTIN7android18trait_trivial_moveIyE6$valueE",
   "name" : "android::trait_trivial_move<unsigned long long>::(unnamed)",
   "self_type" : "_ZTIN7android18trait_trivial_moveIyE6$valueE#ODR:out/soong/.intermediates/system/core/libutils/binder/libutils_binder/android_vendor_arm64_armv8-a_cortex-a53_static_afdo-libutils/obj/system/core/libutils/binder/RefBase.sdump",
   "size" : 4,
   "source_file" : "system/core/libutils/binder/include/utils/TypeHelpers.h",
   "underlying_type" : "_ZTIj"
  },
  {
   "alignment" : 4,
   "enum_fields" :
   [
    {
     "enum_field_value" : 0,
     "name" : "android::Mutex::PRIVATE"
    },
    {
     "enum_field_value" : 1,
     "name" : "android::Mutex::SHARED"
    }
   ],
   "linker_set_key" : "_ZTIN7android5Mutex8$PRIVATEE",
   "name" : "android::Mutex::(unnamed)",
   "size" : 4,
   "source_file" : "system/core/libutils/include/utils/Mutex.h",
   "underlying_type" : "_ZTIj"
  },
  {
   "alignment" : 4,
   "enum_fields" :
   [
    {
     "enum_field_value" : 1,
     "name" : "android::Looper::EVENT_INPUT"
    },
    {
     "enum_field_value" : 2,
     "name" : "android::Looper::EVENT_OUTPUT"
    },
    {
     "enum_field_value" : 4,
     "name" : "android::Looper::EVENT_ERROR"
    },
    {
     "enum_field_value" : 8,
     "name" : "android::Looper::EVENT_HANGUP"
    },
    {
     "enum_field_value" : 16,
     "name" : "android::Looper::EVENT_INVALID"
    }
   ],
   "linker_set_key" : "_ZTIN7android6Looper12$EVENT_ERRORE",
   "name" : "android::Looper::(unnamed)",
   "size" : 4,
   "source_file" : "system/core/libutils/include/utils/Looper.h",
   "underlying_type" : "_ZTIj"
  },
  {
   "alignment" : 4,
   "enum_fields" :
   [
    {
     "enum_field_value" : -1,
     "name" : "android::Looper::POLL_WAKE"
    },
    {
     "enum_field_value" : -2,
     "name" : "android::Looper::POLL_CALLBACK"
    },
    {
     "enum_field_value" : -3,
     "name" : "android::Looper::POLL_TIMEOUT"
    },
    {
     "enum_field_value" : -4,
     "name" : "android::Looper::POLL_ERROR"
    }
   ],
   "linker_set_key" : "_ZTIN7android6Looper14$POLL_CALLBACKE",
   "name" : "android::Looper::(unnamed)",
   "size" : 4,
   "source_file" : "system/core/libutils/include/utils/Looper.h",
   "underlying_type" : "_ZTIi"
  },
  {
   "alignment" : 4,
   "enum_fields" :
   [
    {
     "enum_field_value" : 1,
     "name" : "android::Looper::PREPARE_ALLOW_NON_CALLBACKS"
    }
   ],
   "linker_set_key" : "_ZTIN7android6Looper28$PREPARE_ALLOW_NON_CALLBACKSE",
   "name" : "android::Looper::(unnamed)",
   "size" : 4,
   "source_file" : "system/core/libutils/include/utils/Looper.h",
   "underlying_type" : "_ZTIj"
  },
  {
   "alignment" : 4,
   "enum_fields" :
   [
    {
     "enum_field_value" : 0,
     "name" : "android::RWLock::PRIVATE"
    },
    {
     "enum_field_value" : 1,
     "name" : "android::RWLock::SHARED"
    }
   ],
   "linker_set_key" : "_ZTIN7android6RWLock8$PRIVATEE",
   "name" : "android::RWLock::(unnamed)",
   "size" : 4,
   "source_file" : "system/core/libutils/include/utils/RWLock.h",
   "underlying_type" : "_ZTIj"
  },
  {
   "alignment" : 4,
   "enum_fields" :
   [
    {
     "enum_field_value" : 0,
     "name" : "android::traits<android::sysprop_change_callback_info>::is_pointer"
    },
    {
     "enum_field_value" : 0,
     "name" : "android::traits<android::sysprop_change_callback_info>::has_trivial_ctor"
    },
    {
     "enum_field_value" : 0,
     "name" : "android::traits<android::sysprop_change_callback_info>::has_trivial_dtor"
    },
    {
     "enum_field_value" : 0,
     "name" : "android::traits<android::sysprop_change_callback_info>::has_trivial_copy"
    },
    {
     "enum_field_value" : 0,
     "name" : "android::traits<android::sysprop_change_callback_info>::has_trivial_move"
    }
   ],
   "linker_set_key" : "_ZTIN7android6traitsINS_28sysprop_change_callback_infoEE17$has_trivial_copyE",
   "name" : "android::traits<android::sysprop_change_callback_info>::(unnamed)",
   "size" : 4,
   "source_file" : "system/core/libutils/include/utils/TypeHelpers.h",
   "underlying_type" : "_ZTIj"
  },
  {
   "alignment" : 4,
   "enum_fields" :
   [
    {
     "enum_field_value" : 0,
     "name" : "android::traits<android::Looper::MessageEnvelope>::is_pointer"
    },
    {
     "enum_field_value" : 0,
     "name" : "android::traits<android::Looper::MessageEnvelope>::has_trivial_ctor"
    },
    {
     "enum_field_value" : 0,
     "name" : "android::traits<android::Looper::MessageEnvelope>::has_trivial_dtor"
    },
    {
     "enum_field_value" : 0,
     "name" : "android::traits<android::Looper::MessageEnvelope>::has_trivial_copy"
    },
    {
     "enum_field_value" : 0,
     "name" : "android::traits<android::Looper::MessageEnvelope>::has_trivial_move"
    }
   ],
   "linker_set_key" : "_ZTIN7android6traitsINS_6Looper15MessageEnvelopeEE17$has_trivial_copyE",
   "name" : "android::traits<android::Looper::MessageEnvelope>::(unnamed)",
   "size" : 4,
   "source_file" : "system/core/libutils/include/utils/TypeHelpers.h",
   "underlying_type" : "_ZTIj"
  },
  {
   "alignment" : 4,
   "enum_fields" :
   [
    {
     "enum_field_value" : 0,
     "name" : "android::traits<android::Looper::Response>::is_pointer"
    },
    {
     "enum_field_value" : 0,
     "name" : "android::traits<android::Looper::Response>::has_trivial_ctor"
    },
    {
     "enum_field_value" : 0,
     "name" : "android::traits<android::Looper::Response>::has_trivial_dtor"
    },
    {
     "enum_field_value" : 0,
     "name" : "android::traits<android::Looper::Response>::has_trivial_copy"
    },
    {
     "enum_field_value" : 0,
     "name" : "android::traits<android::Looper::Response>::has_trivial_move"
    }
   ],
   "linker_set_key" : "_ZTIN7android6traitsINS_6Looper8ResponseEE17$has_trivial_copyE",
   "name" : "android::traits<android::Looper::Response>::(unnamed)",
   "size" : 4,
   "source_file" : "system/core/libutils/include/utils/TypeHelpers.h",
   "underlying_type" : "_ZTIj"
  },
  {
   "alignment" : 4,
   "enum_fields" :
   [
    {
     "enum_field_value" : 0,
     "name" : "android::FileMap::NORMAL"
    },
    {
     "enum_field_value" : 1,
     "name" : "android::FileMap::RANDOM"
    },
    {
     "enum_field_value" : 2,
     "name" : "android::FileMap::SEQUENTIAL"
    },
    {
     "enum_field_value" : 3,
     "name" : "android::FileMap::WILLNEED"
    },
    {
     "enum_field_value" : 4,
     "name" : "android::FileMap::DONTNEED"
    }
   ],
   "linker_set_key" : "_ZTIN7android7FileMap9MapAdviceE",
   "name" : "android::FileMap::MapAdvice",
   "size" : 4,
   "source_file" : "system/core/libutils/include/utils/FileMap.h",
   "underlying_type" : "_ZTIj"
  },
  {
   "access" : "protected",
   "alignment" : 4,
   "enum_fields" :
   [
    {
     "enum_field_value" : 1,
     "name" : "android::RefBase::FIRST_INC_STRONG"
    }
   ],
   "linker_set_key" : "_ZTIN7android7RefBase17$FIRST_INC_STRONGE",
   "name" : "android::RefBase::(unnamed)",
   "size" : 4,
   "source_file" : "system/core/libutils/include/utils/RefBase.h",
   "underlying_type" : "_ZTIj"
  },
  {
   "access" : "protected",
   "alignment" : 4,
   "enum_fields" :
   [
    {
     "enum_field_value" : 1,
     "name" : "android::RefBase::FIRST_INC_STRONG"
    }
   ],
   "linker_set_key" : "_ZTIN7android7RefBase17$FIRST_INC_STRONGE",
   "name" : "android::RefBase::(unnamed)",
   "self_type" : "_ZTIN7android7RefBase17$FIRST_INC_STRONGE#ODR:out/soong/.intermediates/system/core/libutils/binder/libutils_binder/android_vendor_arm64_armv8-a_cortex-a53_static_afdo-libutils/obj/system/core/libutils/binder/RefBase.sdump",
   "size" : 4,
   "source_file" : "system/core/libutils/binder/include/utils/RefBase.h",
   "underlying_type" : "_ZTIj"
  },
  {
   "access" : "protected",
   "alignment" : 4,
   "enum_fields" :
   [
    {
     "enum_field_value" : 0,
     "name" : "android::RefBase::OBJECT_LIFETIME_STRONG"
    },
    {
     "enum_field_value" : 1,
     "name" : "android::RefBase::OBJECT_LIFETIME_WEAK"
    },
    {
     "enum_field_value" : 1,
     "name" : "android::RefBase::OBJECT_LIFETIME_MASK"
    }
   ],
   "linker_set_key" : "_ZTIN7android7RefBase21$OBJECT_LIFETIME_MASKE",
   "name" : "android::RefBase::(unnamed)",
   "size" : 4,
   "source_file" : "system/core/libutils/include/utils/RefBase.h",
   "underlying_type" : "_ZTIj"
  },
  {
   "access" : "protected",
   "alignment" : 4,
   "enum_fields" :
   [
    {
     "enum_field_value" : 0,
     "name" : "android::RefBase::OBJECT_LIFETIME_STRONG"
    },
    {
     "enum_field_value" : 1,
     "name" : "android::RefBase::OBJECT_LIFETIME_WEAK"
    },
    {
     "enum_field_value" : 1,
     "name" : "android::RefBase::OBJECT_LIFETIME_MASK"
    }
   ],
   "linker_set_key" : "_ZTIN7android7RefBase21$OBJECT_LIFETIME_MASKE",
   "name" : "android::RefBase::(unnamed)",
   "self_type" : "_ZTIN7android7RefBase21$OBJECT_LIFETIME_MASKE#ODR:out/soong/.intermediates/system/core/libutils/binder/libutils_binder/android_vendor_arm64_armv8-a_cortex-a53_static_afdo-libutils/obj/system/core/libutils/binder/RefBase.sdump",
   "size" : 4,
   "source_file" : "system/core/libutils/binder/include/utils/RefBase.h",
   "underlying_type" : "_ZTIj"
  },
  {
   "alignment" : 4,
   "enum_fields" :
   [
    {
     "enum_field_value" : 0,
     "name" : "android::Condition::WAKE_UP_ONE"
    },
    {
     "enum_field_value" : 1,
     "name" : "android::Condition::WAKE_UP_ALL"
    }
   ],
   "linker_set_key" : "_ZTIN7android9Condition10WakeUpTypeE",
   "name" : "android::Condition::WakeUpType",
   "size" : 4,
   "source_file" : "system/core/libutils/include/utils/Condition.h",
   "underlying_type" : "_ZTIj"
  },
  {
   "alignment" : 4,
   "enum_fields" :
   [
    {
     "enum_field_value" : 0,
     "name" : "android::Condition::PRIVATE"
    },
    {
     "enum_field_value" : 1,
     "name" : "android::Condition::SHARED"
    }
   ],
   "linker_set_key" : "_ZTIN7android9Condition8$PRIVATEE",
   "name" : "android::Condition::(unnamed)",
   "size" : 4,
   "source_file" : "system/core/libutils/include/utils/Condition.h",
   "underlying_type" : "_ZTIj"
  },
  {
   "access" : "private",
   "alignment" : 4,
   "enum_fields" :
   [
    {
     "enum_field_value" : 20,
     "name" : "android::FdPrinter::MAX_FORMAT_STRING"
    }
   ],
   "linker_set_key" : "_ZTIN7android9FdPrinter18$MAX_FORMAT_STRINGE",
   "name" : "android::FdPrinter::(unnamed)",
   "size" : 4,
   "source_file" : "system/core/libutils/include/utils/Printer.h",
   "underlying_type" : "_ZTIj"
  }
 ],
 "function_types" :
 [
  {
   "alignment" : 4,
   "linker_set_key" : "_ZTIFiPFiPvES_PKcimPS_E",
   "name" : "int (int (*)(void *), void *, const char *, int, unsigned long, void **)",
   "parameters" :
   [
    {
     "referenced_type" : "_ZTIPFiPvE"
    },
    {
     "referenced_type" : "_ZTIPv"
    },
    {
     "referenced_type" : "_ZTIPKc"
    },
    {
     "referenced_type" : "_ZTIi"
    },
    {
     "referenced_type" : "_ZTIm"
    },
    {
     "referenced_type" : "_ZTIPPv"
    }
   ],
   "return_type" : "_ZTIi",
   "source_file" : "system/core/libutils/include/utils/AndroidThreads.h"
  },
  {
   "alignment" : 4,
   "linker_set_key" : "_ZTIFiPKvS0_E",
   "name" : "int (const void *, const void *)",
   "parameters" :
   [
    {
     "referenced_type" : "_ZTIPKv"
    },
    {
     "referenced_type" : "_ZTIPKv"
    }
   ],
   "return_type" : "_ZTIi",
   "source_file" : "system/core/libutils/binder/include/utils/VectorImpl.h"
  },
  {
   "alignment" : 4,
   "linker_set_key" : "_ZTIFiPKvS0_PvE",
   "name" : "int (const void *, const void *, void *)",
   "parameters" :
   [
    {
     "referenced_type" : "_ZTIPKv"
    },
    {
     "referenced_type" : "_ZTIPKv"
    },
    {
     "referenced_type" : "_ZTIPv"
    }
   ],
   "return_type" : "_ZTIi",
   "source_file" : "system/core/libutils/binder/include/utils/VectorImpl.h"
  },
  {
   "alignment" : 4,
   "linker_set_key" : "_ZTIFiPvE",
   "name" : "int (void *)",
   "parameters" :
   [
    {
     "referenced_type" : "_ZTIPv"
    }
   ],
   "return_type" : "_ZTIi",
   "source_file" : "system/core/libutils/include/utils/AndroidThreads.h"
  },
  {
   "alignment" : 4,
   "linker_set_key" : "_ZTIFiiiPvE",
   "name" : "int (int, int, void *)",
   "parameters" :
   [
    {
     "referenced_type" : "_ZTIi"
    },
    {
     "referenced_type" : "_ZTIi"
    },
    {
     "referenced_type" : "_ZTIPv"
    }
   ],
   "return_type" : "_ZTIi",
   "source_file" : "system/core/libutils/include/utils/StrongPointer.h"
  },
  {
   "alignment" : 4,
   "linker_set_key" : "_ZTIFvvE",
   "name" : "void ()",
   "return_type" : "_ZTIv",
   "source_file" : "system/core/libutils/include/utils/misc.h"
  }
 ],
 "functions" :
 [
  {
   "access" : "private",
   "function_name" : "android::LogPrinter::printRaw",
   "linker_set_key" : "_ZN7android10LogPrinter8printRawEPKc",
   "parameters" :
   [
    {
     "is_this_ptr" : true,
     "referenced_type" : "_ZTIPN7android10LogPrinterE"
    },
    {
     "referenced_type" : "_ZTIPKc"
    }
   ],
   "return_type" : "_ZTIv",
   "source_file" : "system/core/libutils/include/utils/Printer.h"
  },
  {
   "function_name" : "android::LogPrinter::printLine",
   "linker_set_key" : "_ZN7android10LogPrinter9printLineEPKc",
   "parameters" :
   [
    {
     "is_this_ptr" : true,
     "referenced_type" : "_ZTIPN7android10LogPrinterE"
    },
    {
     "referenced_type" : "_ZTIPKc"
    }
   ],
   "return_type" : "_ZTIv",
   "source_file" : "system/core/libutils/include/utils/Printer.h"
  },
  {
   "function_name" : "android::LogPrinter::LogPrinter",
   "linker_set_key" : "_ZN7android10LogPrinterC1EPKc19android_LogPriorityS2_b",
   "parameters" :
   [
    {
     "is_this_ptr" : true,
     "referenced_type" : "_ZTIPN7android10LogPrinterE"
    },
    {
     "referenced_type" : "_ZTIPKc"
    },
    {
     "default_arg" : true,
     "referenced_type" : "_ZTI19android_LogPriority"
    },
    {
     "default_arg" : true,
     "referenced_type" : "_ZTIPKc"
    },
    {
     "default_arg" : true,
     "referenced_type" : "_ZTIb"
    }
   ],
   "return_type" : "_ZTIv",
   "source_file" : "system/core/libutils/include/utils/Printer.h"
  },
  {
   "function_name" : "android::LogPrinter::LogPrinter",
   "linker_set_key" : "_ZN7android10LogPrinterC2EPKc19android_LogPriorityS2_b",
   "parameters" :
   [
    {
     "is_this_ptr" : true,
     "referenced_type" : "_ZTIPN7android10LogPrinterE"
    },
    {
     "referenced_type" : "_ZTIPKc"
    },
    {
     "default_arg" : true,
     "referenced_type" : "_ZTI19android_LogPriority"
    },
    {
     "default_arg" : true,
     "referenced_type" : "_ZTIPKc"
    },
    {
     "default_arg" : true,
     "referenced_type" : "_ZTIb"
    }
   ],
   "return_type" : "_ZTIv",
   "source_file" : "system/core/libutils/include/utils/Printer.h"
  },
  {
   "function_name" : "android::VectorImpl::appendArray",
   "linker_set_key" : "_ZN7android10VectorImpl11appendArrayEPKvm",
   "parameters" :
   [
    {
     "is_this_ptr" : true,
     "referenced_type" : "_ZTIPN7android10VectorImplE"
    },
    {
     "referenced_type" : "_ZTIPKv"
    },
    {
     "referenced_type" : "_ZTIm"
    }
   ],
   "return_type" : "_ZTIl",
   "source_file" : "system/core/libutils/binder/include/utils/VectorImpl.h"
  },
  {
   "function_name" : "android::VectorImpl::setCapacity",
   "linker_set_key" : "_ZN7android10VectorImpl11setCapacityEm",
   "parameters" :
   [
    {
     "is_this_ptr" : true,
     "referenced_type" : "_ZTIPN7android10VectorImplE"
    },
    {
     "referenced_type" : "_ZTIm"
    }
   ],
   "return_type" : "_ZTIl",
   "source_file" : "system/core/libutils/binder/include/utils/VectorImpl.h"
  },
  {
   "function_name" : "android::VectorImpl::appendVector",
   "linker_set_key" : "_ZN7android10VectorImpl12appendVectorERKS0_",
   "parameters" :
   [
    {
     "is_this_ptr" : true,
     "referenced_type" : "_ZTIPN7android10VectorImplE"
    },
    {
     "referenced_type" : "_ZTIRKN7android10VectorImplE"
    }
   ],
   "return_type" : "_ZTIl",
   "source_file" : "system/core/libutils/binder/include/utils/VectorImpl.h"
  },
  {
   "function_name" : "android::VectorImpl::editArrayImpl",
   "linker_set_key" : "_ZN7android10VectorImpl13editArrayImplEv",
   "parameters" :
   [
    {
     "is_this_ptr" : true,
     "referenced_type" : "_ZTIPN7android10VectorImplE"
    }
   ],
   "return_type" : "_ZTIPv",
   "source_file" : "system/core/libutils/binder/include/utils/VectorImpl.h"
  },
  {
   "function_name" : "android::VectorImpl::finish_vector",
   "linker_set_key" : "_ZN7android10VectorImpl13finish_vectorEv",
   "parameters" :
   [
    {
     "is_this_ptr" : true,
     "referenced_type" : "_ZTIPN7android10VectorImplE"
    }
   ],
   "return_type" : "_ZTIv",
   "source_file" : "system/core/libutils/binder/include/utils/VectorImpl.h"
  },
  {
   "function_name" : "android::VectorImpl::insertArrayAt",
   "linker_set_key" : "_ZN7android10VectorImpl13insertArrayAtEPKvmm",
   "parameters" :
   [
    {
     "is_this_ptr" : true,
     "referenced_type" : "_ZTIPN7android10VectorImplE"
    },
    {
     "referenced_type" : "_ZTIPKv"
    },
    {
     "referenced_type" : "_ZTIm"
    },
    {
     "referenced_type" : "_ZTIm"
    }
   ],
   "return_type" : "_ZTIl",
   "source_file" : "system/core/libutils/binder/include/utils/VectorImpl.h"
  },
  {
   "function_name" : "android::VectorImpl::removeItemsAt",
   "linker_set_key" : "_ZN7android10VectorImpl13removeItemsAtEmm",
   "parameters" :
   [
    {
     "is_this_ptr" : true,
     "referenced_type" : "_ZTIPN7android10VectorImplE"
    },
    {
     "referenced_type" : "_ZTIm"
    },
    {
     "default_arg" : true,
     "referenced_type" : "_ZTIm"
    }
   ],
   "return_type" : "_ZTIl",
   "source_file" : "system/core/libutils/binder/include/utils/VectorImpl.h"
  },
  {
   "function_name" : "android::VectorImpl::insertVectorAt",
   "linker_set_key" : "_ZN7android10VectorImpl14insertVectorAtERKS0_m",
   "parameters" :
   [
    {
     "is_this_ptr" : true,
     "referenced_type" : "_ZTIPN7android10VectorImplE"
    },
    {
     "referenced_type" : "_ZTIRKN7android10VectorImplE"
    },
    {
     "referenced_type" : "_ZTIm"
    }
   ],
   "return_type" : "_ZTIl",
   "source_file" : "system/core/libutils/binder/include/utils/VectorImpl.h"
  },
  {
   "access" : "protected",
   "function_name" : "android::VectorImpl::release_storage",
   "linker_set_key" : "_ZN7android10VectorImpl15release_storageEv",
   "parameters" :
   [
    {
     "is_this_ptr" : true,
     "referenced_type" : "_ZTIPN7android10VectorImplE"
    }
   ],
   "return_type" : "_ZTIv",
   "source_file" : "system/core/libutils/binder/include/utils/VectorImpl.h"
  },
  {
   "function_name" : "android::VectorImpl::editItemLocation",
   "linker_set_key" : "_ZN7android10VectorImpl16editItemLocationEm",
   "parameters" :
   [
    {
     "is_this_ptr" : true,
     "referenced_type" : "_ZTIPN7android10VectorImplE"
    },
    {
     "referenced_type" : "_ZTIm"
    }
   ],
   "return_type" : "_ZTIPv",
   "source_file" : "system/core/libutils/binder/include/utils/VectorImpl.h"
  },
  {
   "function_name" : "android::VectorImpl::add",
   "linker_set_key" : "_ZN7android10VectorImpl3addEPKv",
   "parameters" :
   [
    {
     "is_this_ptr" : true,
     "referenced_type" : "_ZTIPN7android10VectorImplE"
    },
    {
     "referenced_type" : "_ZTIPKv"
    }
   ],
   "return_type" : "_ZTIl",
   "source_file" : "system/core/libutils/binder/include/utils/VectorImpl.h"
  },
  {
   "function_name" : "android::VectorImpl::add",
   "linker_set_key" : "_ZN7android10VectorImpl3addEv",
   "parameters" :
   [
    {
     "is_this_ptr" : true,
     "referenced_type" : "_ZTIPN7android10VectorImplE"
    }
   ],
   "return_type" : "_ZTIl",
   "source_file" : "system/core/libutils/binder/include/utils/VectorImpl.h"
  },
  {
   "function_name" : "android::VectorImpl::pop",
   "linker_set_key" : "_ZN7android10VectorImpl3popEv",
   "parameters" :
   [
    {
     "is_this_ptr" : true,
     "referenced_type" : "_ZTIPN7android10VectorImplE"
    }
   ],
   "return_type" : "_ZTIv",
   "source_file" : "system/core/libutils/binder/include/utils/VectorImpl.h"
  },
  {
   "function_name" : "android::VectorImpl::push",
   "linker_set_key" : "_ZN7android10VectorImpl4pushEPKv",
   "parameters" :
   [
    {
     "is_this_ptr" : true,
     "referenced_type" : "_ZTIPN7android10VectorImplE"
    },
    {
     "referenced_type" : "_ZTIPKv"
    }
   ],
   "return_type" : "_ZTIv",
   "source_file" : "system/core/libutils/binder/include/utils/VectorImpl.h"
  },
  {
   "function_name" : "android::VectorImpl::push",
   "linker_set_key" : "_ZN7android10VectorImpl4pushEv",
   "parameters" :
   [
    {
     "is_this_ptr" : true,
     "referenced_type" : "_ZTIPN7android10VectorImplE"
    }
   ],
   "return_type" : "_ZTIv",
   "source_file" : "system/core/libutils/binder/include/utils/VectorImpl.h"
  },
  {
   "function_name" : "android::VectorImpl::sort",
   "linker_set_key" : "_ZN7android10VectorImpl4sortEPFiPKvS2_E",
   "parameters" :
   [
    {
     "is_this_ptr" : true,
     "referenced_type" : "_ZTIPN7android10VectorImplE"
    },
    {
     "referenced_type" : "_ZTIPFiPKvS0_E"
    }
   ],
   "return_type" : "_ZTIi",
   "source_file" : "system/core/libutils/binder/include/utils/VectorImpl.h"
  },
  {
   "function_name" : "android::VectorImpl::sort",
   "linker_set_key" : "_ZN7android10VectorImpl4sortEPFiPKvS2_PvES3_",
   "parameters" :
   [
    {
     "is_this_ptr" : true,
     "referenced_type" : "_ZTIPN7android10VectorImplE"
    },
    {
     "referenced_type" : "_ZTIPFiPKvS0_PvE"
    },
    {
     "referenced_type" : "_ZTIPv"
    }
   ],
   "return_type" : "_ZTIi",
   "source_file" : "system/core/libutils/binder/include/utils/VectorImpl.h"
  },
  {
   "access" : "private",
   "function_name" : "android::VectorImpl::_grow",
   "linker_set_key" : "_ZN7android10VectorImpl5_growEmm",
   "parameters" :
   [
    {
     "is_this_ptr" : true,
     "referenced_type" : "_ZTIPN7android10VectorImplE"
    },
    {
     "referenced_type" : "_ZTIm"
    },
    {
     "referenced_type" : "_ZTIm"
    }
   ],
   "return_type" : "_ZTIPv",
   "source_file" : "system/core/libutils/binder/include/utils/VectorImpl.h"
  },
  {
   "function_name" : "android::VectorImpl::clear",
   "linker_set_key" : "_ZN7android10VectorImpl5clearEv",
   "parameters" :
   [
    {
     "is_this_ptr" : true,
     "referenced_type" : "_ZTIPN7android10VectorImplE"
    }
   ],
   "return_type" : "_ZTIv",
   "source_file" : "system/core/libutils/binder/include/utils/VectorImpl.h"
  },
  {
   "function_name" : "android::VectorImpl::resize",
   "linker_set_key" : "_ZN7android10VectorImpl6resizeEm",
   "parameters" :
   [
    {
     "is_this_ptr" : true,
     "referenced_type" : "_ZTIPN7android10VectorImplE"
    },
    {
     "referenced_type" : "_ZTIm"
    }
   ],
   "return_type" : "_ZTIl",
   "source_file" : "system/core/libutils/binder/include/utils/VectorImpl.h"
  },
  {
   "access" : "private",
   "function_name" : "android::VectorImpl::_shrink",
   "linker_set_key" : "_ZN7android10VectorImpl7_shrinkEmm",
   "parameters" :
   [
    {
     "is_this_ptr" : true,
     "referenced_type" : "_ZTIPN7android10VectorImplE"
    },
    {
     "referenced_type" : "_ZTIm"
    },
    {
     "referenced_type" : "_ZTIm"
    }
   ],
   "return_type" : "_ZTIv",
   "source_file" : "system/core/libutils/binder/include/utils/VectorImpl.h"
  },
  {
   "function_name" : "android::VectorImpl::insertAt",
   "linker_set_key" : "_ZN7android10VectorImpl8insertAtEPKvmm",
   "parameters" :
   [
    {
     "is_this_ptr" : true,
     "referenced_type" : "_ZTIPN7android10VectorImplE"
    },
    {
     "referenced_type" : "_ZTIPKv"
    },
    {
     "referenced_type" : "_ZTIm"
    },
    {
     "default_arg" : true,
     "referenced_type" : "_ZTIm"
    }
   ],
   "return_type" : "_ZTIl",
   "source_file" : "system/core/libutils/binder/include/utils/VectorImpl.h"
  },
  {
   "function_name" : "android::VectorImpl::insertAt",
   "linker_set_key" : "_ZN7android10VectorImpl8insertAtEmm",
   "parameters" :
   [
    {
     "is_this_ptr" : true,
     "referenced_type" : "_ZTIPN7android10VectorImplE"
    },
    {
     "referenced_type" : "_ZTIm"
    },
    {
     "default_arg" : true,
     "referenced_type" : "_ZTIm"
    }
   ],
   "return_type" : "_ZTIl",
   "source_file" : "system/core/libutils/binder/include/utils/VectorImpl.h"
  },
  {
   "function_name" : "android::VectorImpl::replaceAt",
   "linker_set_key" : "_ZN7android10VectorImpl9replaceAtEPKvm",
   "parameters" :
   [
    {
     "is_this_ptr" : true,
     "referenced_type" : "_ZTIPN7android10VectorImplE"
    },
    {
     "referenced_type" : "_ZTIPKv"
    },
    {
     "referenced_type" : "_ZTIm"
    }
   ],
   "return_type" : "_ZTIl",
   "source_file" : "system/core/libutils/binder/include/utils/VectorImpl.h"
  },
  {
   "function_name" : "android::VectorImpl::replaceAt",
   "linker_set_key" : "_ZN7android10VectorImpl9replaceAtEm",
   "parameters" :
   [
    {
     "is_this_ptr" : true,
     "referenced_type" : "_ZTIPN7android10VectorImplE"
    },
    {
     "referenced_type" : "_ZTIm"
    }
   ],
   "return_type" : "_ZTIl",
   "source_file" : "system/core/libutils/binder/include/utils/VectorImpl.h"
  },
  {
   "function_name" : "android::VectorImpl::VectorImpl",
   "linker_set_key" : "_ZN7android10VectorImplC2ERKS0_",
   "parameters" :
   [
    {
     "is_this_ptr" : true,
     "referenced_type" : "_ZTIPN7android10VectorImplE"
    },
    {
     "referenced_type" : "_ZTIRKN7android10VectorImplE"
    }
   ],
   "return_type" : "_ZTIv",
   "source_file" : "system/core/libutils/binder/include/utils/VectorImpl.h"
  },
  {
   "function_name" : "android::VectorImpl::VectorImpl",
   "linker_set_key" : "_ZN7android10VectorImplC2Emj",
   "parameters" :
   [
    {
     "is_this_ptr" : true,
     "referenced_type" : "_ZTIPN7android10VectorImplE"
    },
    {
     "referenced_type" : "_ZTIm"
    },
    {
     "referenced_type" : "_ZTIj"
    }
   ],
   "return_type" : "_ZTIv",
   "source_file" : "system/core/libutils/binder/include/utils/VectorImpl.h"
  },
  {
   "function_name" : "android::VectorImpl::~VectorImpl",
   "linker_set_key" : "_ZN7android10VectorImplD0Ev",
   "parameters" :
   [
    {
     "is_this_ptr" : true,
     "referenced_type" : "_ZTIPN7android10VectorImplE"
    }
   ],
   "return_type" : "_ZTIv",
   "source_file" : "system/core/libutils/binder/include/utils/VectorImpl.h"
  },
  {
   "function_name" : "android::VectorImpl::~VectorImpl",
   "linker_set_key" : "_ZN7android10VectorImplD1Ev",
   "parameters" :
   [
    {
     "is_this_ptr" : true,
     "referenced_type" : "_ZTIPN7android10VectorImplE"
    }
   ],
   "return_type" : "_ZTIv",
   "source_file" : "system/core/libutils/binder/include/utils/VectorImpl.h"
  },
  {
   "function_name" : "android::VectorImpl::~VectorImpl",
   "linker_set_key" : "_ZN7android10VectorImplD2Ev",
   "parameters" :
   [
    {
     "is_this_ptr" : true,
     "referenced_type" : "_ZTIPN7android10VectorImplE"
    }
   ],
   "return_type" : "_ZTIv",
   "source_file" : "system/core/libutils/binder/include/utils/VectorImpl.h"
  },
  {
   "function_name" : "android::VectorImpl::operator=",
   "linker_set_key" : "_ZN7android10VectorImplaSERKS0_",
   "parameters" :
   [
    {
     "is_this_ptr" : true,
     "referenced_type" : "_ZTIPN7android10VectorImplE"
    },
    {
     "referenced_type" : "_ZTIRKN7android10VectorImplE"
    }
   ],
   "return_type" : "_ZTIRN7android10VectorImplE",
   "source_file" : "system/core/libutils/binder/include/utils/VectorImpl.h"
  },
  {
   "function_name" : "android::uptimeNanos",
   "linker_set_key" : "_ZN7android11uptimeNanosEv",
   "return_type" : "_ZTIl",
   "source_file" : "system/core/libutils/include/utils/SystemClock.h"
  },
  {
   "function_name" : "android::NativeHandle::create",
   "linker_set_key" : "_ZN7android12NativeHandle6createEP13native_handleb",
   "parameters" :
   [
    {
     "referenced_type" : "_ZTIP13native_handle"
    },
    {
     "referenced_type" : "_ZTIb"
    }
   ],
   "return_type" : "_ZTIN7android2spINS_12NativeHandleEEE",
   "source_file" : "system/core/libutils/include/utils/NativeHandle.h"
  },
  {
   "access" : "private",
   "function_name" : "android::NativeHandle::NativeHandle",
   "linker_set_key" : "_ZN7android12NativeHandleC1EP13native_handleb",
   "parameters" :
   [
    {
     "is_this_ptr" : true,
     "referenced_type" : "_ZTIPN7android12NativeHandleE"
    },
    {
     "referenced_type" : "_ZTIP13native_handle"
    },
    {
     "referenced_type" : "_ZTIb"
    }
   ],
   "return_type" : "_ZTIv",
   "source_file" : "system/core/libutils/include/utils/NativeHandle.h"
  },
  {
   "access" : "private",
   "function_name" : "android::NativeHandle::NativeHandle",
   "linker_set_key" : "_ZN7android12NativeHandleC2EP13native_handleb",
   "parameters" :
   [
    {
     "is_this_ptr" : true,
     "referenced_type" : "_ZTIPN7android12NativeHandleE"
    },
    {
     "referenced_type" : "_ZTIP13native_handle"
    },
    {
     "referenced_type" : "_ZTIb"
    }
   ],
   "return_type" : "_ZTIv",
   "source_file" : "system/core/libutils/include/utils/NativeHandle.h"
  },
  {
   "access" : "private",
   "function_name" : "android::NativeHandle::~NativeHandle",
   "linker_set_key" : "_ZN7android12NativeHandleD1Ev",
   "parameters" :
   [
    {
     "is_this_ptr" : true,
     "referenced_type" : "_ZTIPN7android12NativeHandleE"
    }
   ],
   "return_type" : "_ZTIv",
   "source_file" : "system/core/libutils/include/utils/NativeHandle.h"
  },
  {
   "access" : "private",
   "function_name" : "android::NativeHandle::~NativeHandle",
   "linker_set_key" : "_ZN7android12NativeHandleD2Ev",
   "parameters" :
   [
    {
     "is_this_ptr" : true,
     "referenced_type" : "_ZTIPN7android12NativeHandleE"
    }
   ],
   "return_type" : "_ZTIv",
   "source_file" : "system/core/libutils/include/utils/NativeHandle.h"
  },
  {
   "function_name" : "android::uptimeMillis",
   "linker_set_key" : "_ZN7android12uptimeMillisEv",
   "return_type" : "_ZTIl",
   "source_file" : "system/core/libutils/include/utils/SystemClock.h"
  },
  {
   "function_name" : "android::PrefixPrinter::printLine",
   "linker_set_key" : "_ZN7android13PrefixPrinter9printLineEPKc",
   "parameters" :
   [
    {
     "is_this_ptr" : true,
     "referenced_type" : "_ZTIPN7android13PrefixPrinterE"
    },
    {
     "referenced_type" : "_ZTIPKc"
    }
   ],
   "return_type" : "_ZTIv",
   "source_file" : "system/core/libutils/include/utils/Printer.h"
  },
  {
   "function_name" : "android::PrefixPrinter::PrefixPrinter",
   "linker_set_key" : "_ZN7android13PrefixPrinterC1ERNS_7PrinterEPKc",
   "parameters" :
   [
    {
     "is_this_ptr" : true,
     "referenced_type" : "_ZTIPN7android13PrefixPrinterE"
    },
    {
     "referenced_type" : "_ZTIRN7android7PrinterE"
    },
    {
     "referenced_type" : "_ZTIPKc"
    }
   ],
   "return_type" : "_ZTIv",
   "source_file" : "system/core/libutils/include/utils/Printer.h"
  },
  {
   "function_name" : "android::PrefixPrinter::PrefixPrinter",
   "linker_set_key" : "_ZN7android13PrefixPrinterC2ERNS_7PrinterEPKc",
   "parameters" :
   [
    {
     "is_this_ptr" : true,
     "referenced_type" : "_ZTIPN7android13PrefixPrinterE"
    },
    {
     "referenced_type" : "_ZTIRN7android7PrinterE"
    },
    {
     "referenced_type" : "_ZTIPKc"
    }
   ],
   "return_type" : "_ZTIv",
   "source_file" : "system/core/libutils/include/utils/Printer.h"
  },
  {
   "access" : "protected",
   "function_name" : "android::LooperCallback::~LooperCallback",
   "linker_set_key" : "_ZN7android14LooperCallbackD0Ev",
   "parameters" :
   [
    {
     "is_this_ptr" : true,
     "referenced_type" : "_ZTIPN7android14LooperCallbackE"
    }
   ],
   "return_type" : "_ZTIv",
   "source_file" : "system/core/libutils/include/utils/Looper.h"
  },
  {
   "access" : "protected",
   "function_name" : "android::LooperCallback::~LooperCallback",
   "linker_set_key" : "_ZN7android14LooperCallbackD1Ev",
   "parameters" :
   [
    {
     "is_this_ptr" : true,
     "referenced_type" : "_ZTIPN7android14LooperCallbackE"
    }
   ],
   "return_type" : "_ZTIv",
   "source_file" : "system/core/libutils/include/utils/Looper.h"
  },
  {
   "access" : "protected",
   "function_name" : "android::LooperCallback::~LooperCallback",
   "linker_set_key" : "_ZN7android14LooperCallbackD2Ev",
   "parameters" :
   [
    {
     "is_this_ptr" : true,
     "referenced_type" : "_ZTIPN7android14LooperCallbackE"
    }
   ],
   "return_type" : "_ZTIv",
   "source_file" : "system/core/libutils/include/utils/Looper.h"
  },
  {
   "access" : "protected",
   "function_name" : "android::MessageHandler::~MessageHandler",
   "linker_set_key" : "_ZN7android14MessageHandlerD0Ev",
   "parameters" :
   [
    {
     "is_this_ptr" : true,
     "referenced_type" : "_ZTIPN7android14MessageHandlerE"
    }
   ],
   "return_type" : "_ZTIv",
   "source_file" : "system/core/libutils/include/utils/Looper.h"
  },
  {
   "access" : "protected",
   "function_name" : "android::MessageHandler::~MessageHandler",
   "linker_set_key" : "_ZN7android14MessageHandlerD1Ev",
   "parameters" :
   [
    {
     "is_this_ptr" : true,
     "referenced_type" : "_ZTIPN7android14MessageHandlerE"
    }
   ],
   "return_type" : "_ZTIv",
   "source_file" : "system/core/libutils/include/utils/Looper.h"
  },
  {
   "access" : "protected",
   "function_name" : "android::MessageHandler::~MessageHandler",
   "linker_set_key" : "_ZN7android14MessageHandlerD2Ev",
   "parameters" :
   [
    {
     "is_this_ptr" : true,
     "referenced_type" : "_ZTIPN7android14MessageHandlerE"
    }
   ],
   "return_type" : "_ZTIv",
   "source_file" : "system/core/libutils/include/utils/Looper.h"
  },
  {
   "function_name" : "android::String8Printer::printLine",
   "linker_set_key" : "_ZN7android14String8Printer9printLineEPKc",
   "parameters" :
   [
    {
     "is_this_ptr" : true,
     "referenced_type" : "_ZTIPN7android14String8PrinterE"
    },
    {
     "referenced_type" : "_ZTIPKc"
    }
   ],
   "return_type" : "_ZTIv",
   "source_file" : "system/core/libutils/include/utils/Printer.h"
  },
  {
   "function_name" : "android::String8Printer::String8Printer",
   "linker_set_key" : "_ZN7android14String8PrinterC1EPNS_7String8EPKc",
   "parameters" :
   [
    {
     "is_this_ptr" : true,
     "referenced_type" : "_ZTIPN7android14String8PrinterE"
    },
    {
     "referenced_type" : "_ZTIPN7android7String8E"
    },
    {
     "default_arg" : true,
     "referenced_type" : "_ZTIPKc"
    }
   ],
   "return_type" : "_ZTIv",
   "source_file" : "system/core/libutils/include/utils/Printer.h"
  },
  {
   "function_name" : "android::String8Printer::String8Printer",
   "linker_set_key" : "_ZN7android14String8PrinterC2EPNS_7String8EPKc",
   "parameters" :
   [
    {
     "is_this_ptr" : true,
     "referenced_type" : "_ZTIPN7android14String8PrinterE"
    },
    {
     "referenced_type" : "_ZTIPN7android7String8E"
    },
    {
     "default_arg" : true,
     "referenced_type" : "_ZTIPKc"
    }
   ],
   "return_type" : "_ZTIv",
   "source_file" : "system/core/libutils/include/utils/Printer.h"
  },
  {
   "function_name" : "android::statusToString",
   "linker_set_key" : "_ZN7android14statusToStringEi",
   "parameters" :
   [
    {
     "referenced_type" : "_ZTIi"
    }
   ],
   "return_type" : "_ZTINSt3__112basic_stringIcNS_11char_traitsIcEENS_9allocatorIcEEEE",
   "source_file" : "system/core/libutils/binder/include/utils/Errors.h"
  },
  {
   "function_name" : "android::elapsedRealtime",
   "linker_set_key" : "_ZN7android15elapsedRealtimeEv",
   "return_type" : "_ZTIl",
   "source_file" : "system/core/libutils/include/utils/SystemClock.h"
  },
  {
   "function_name" : "android::SortedVectorImpl::add",
   "linker_set_key" : "_ZN7android16SortedVectorImpl3addEPKv",
   "parameters" :
   [
    {
     "is_this_ptr" : true,
     "referenced_type" : "_ZTIPN7android16SortedVectorImplE"
    },
    {
     "referenced_type" : "_ZTIPKv"
    }
   ],
   "return_type" : "_ZTIl",
   "source_file" : "system/core/libutils/binder/include/utils/VectorImpl.h"
  },
  {
   "function_name" : "android::SortedVectorImpl::merge",
   "linker_set_key" : "_ZN7android16SortedVectorImpl5mergeERKNS_10VectorImplE",
   "parameters" :
   [
    {
     "is_this_ptr" : true,
     "referenced_type" : "_ZTIPN7android16SortedVectorImplE"
    },
    {
     "referenced_type" : "_ZTIRKN7android10VectorImplE"
    }
   ],
   "return_type" : "_ZTIl",
   "source_file" : "system/core/libutils/binder/include/utils/VectorImpl.h"
  },
  {
   "function_name" : "android::SortedVectorImpl::merge",
   "linker_set_key" : "_ZN7android16SortedVectorImpl5mergeERKS0_",
   "parameters" :
   [
    {
     "is_this_ptr" : true,
     "referenced_type" : "_ZTIPN7android16SortedVectorImplE"
    },
    {
     "referenced_type" : "_ZTIRKN7android16SortedVectorImplE"
    }
   ],
   "return_type" : "_ZTIl",
   "source_file" : "system/core/libutils/binder/include/utils/VectorImpl.h"
  },
  {
   "function_name" : "android::SortedVectorImpl::remove",
   "linker_set_key" : "_ZN7android16SortedVectorImpl6removeEPKv",
   "parameters" :
   [
    {
     "is_this_ptr" : true,
     "referenced_type" : "_ZTIPN7android16SortedVectorImplE"
    },
    {
     "referenced_type" : "_ZTIPKv"
    }
   ],
   "return_type" : "_ZTIl",
   "source_file" : "system/core/libutils/binder/include/utils/VectorImpl.h"
  },
  {
   "function_name" : "android::SortedVectorImpl::SortedVectorImpl",
   "linker_set_key" : "_ZN7android16SortedVectorImplC2ERKNS_10VectorImplE",
   "parameters" :
   [
    {
     "is_this_ptr" : true,
     "referenced_type" : "_ZTIPN7android16SortedVectorImplE"
    },
    {
     "referenced_type" : "_ZTIRKN7android10VectorImplE"
    }
   ],
   "return_type" : "_ZTIv",
   "source_file" : "system/core/libutils/binder/include/utils/VectorImpl.h"
  },
  {
   "function_name" : "android::SortedVectorImpl::SortedVectorImpl",
   "linker_set_key" : "_ZN7android16SortedVectorImplC2Emj",
   "parameters" :
   [
    {
     "is_this_ptr" : true,
     "referenced_type" : "_ZTIPN7android16SortedVectorImplE"
    },
    {
     "referenced_type" : "_ZTIm"
    },
    {
     "referenced_type" : "_ZTIj"
    }
   ],
   "return_type" : "_ZTIv",
   "source_file" : "system/core/libutils/binder/include/utils/VectorImpl.h"
  },
  {
   "function_name" : "android::SortedVectorImpl::~SortedVectorImpl",
   "linker_set_key" : "_ZN7android16SortedVectorImplD0Ev",
   "parameters" :
   [
    {
     "is_this_ptr" : true,
     "referenced_type" : "_ZTIPN7android16SortedVectorImplE"
    }
   ],
   "return_type" : "_ZTIv",
   "source_file" : "system/core/libutils/binder/include/utils/VectorImpl.h"
  },
  {
   "function_name" : "android::SortedVectorImpl::~SortedVectorImpl",
   "linker_set_key" : "_ZN7android16SortedVectorImplD1Ev",
   "parameters" :
   [
    {
     "is_this_ptr" : true,
     "referenced_type" : "_ZTIPN7android16SortedVectorImplE"
    }
   ],
   "return_type" : "_ZTIv",
   "source_file" : "system/core/libutils/binder/include/utils/VectorImpl.h"
  },
  {
   "function_name" : "android::SortedVectorImpl::~SortedVectorImpl",
   "linker_set_key" : "_ZN7android16SortedVectorImplD2Ev",
   "parameters" :
   [
    {
     "is_this_ptr" : true,
     "referenced_type" : "_ZTIPN7android16SortedVectorImplE"
    }
   ],
   "return_type" : "_ZTIv",
   "source_file" : "system/core/libutils/binder/include/utils/VectorImpl.h"
  },
  {
   "function_name" : "android::SortedVectorImpl::operator=",
   "linker_set_key" : "_ZN7android16SortedVectorImplaSERKS0_",
   "parameters" :
   [
    {
     "is_this_ptr" : true,
     "referenced_type" : "_ZTIPN7android16SortedVectorImplE"
    },
    {
     "referenced_type" : "_ZTIRKN7android16SortedVectorImplE"
    }
   ],
   "return_type" : "_ZTIRN7android16SortedVectorImplE",
   "source_file" : "system/core/libutils/binder/include/utils/VectorImpl.h"
  },
  {
   "function_name" : "android::JenkinsHashWhiten",
   "linker_set_key" : "_ZN7android17JenkinsHashWhitenEj",
   "parameters" :
   [
    {
     "referenced_type" : "_ZTIj"
    }
   ],
   "return_type" : "_ZTIj",
   "source_file" : "system/core/libutils/include/utils/JenkinsHash.h"
  },
  {
   "function_name" : "android::WeakMessageHandler::handleMessage",
   "linker_set_key" : "_ZN7android18WeakMessageHandler13handleMessageERKNS_7MessageE",
   "parameters" :
   [
    {
     "is_this_ptr" : true,
     "referenced_type" : "_ZTIPN7android18WeakMessageHandlerE"
    },
    {
     "referenced_type" : "_ZTIRKN7android7MessageE"
    }
   ],
   "return_type" : "_ZTIv",
   "source_file" : "system/core/libutils/include/utils/Looper.h"
  },
  {
   "function_name" : "android::WeakMessageHandler::WeakMessageHandler",
   "linker_set_key" : "_ZN7android18WeakMessageHandlerC1ERKNS_2wpINS_14MessageHandlerEEE",
   "parameters" :
   [
    {
     "is_this_ptr" : true,
     "referenced_type" : "_ZTIPN7android18WeakMessageHandlerE"
    },
    {
     "referenced_type" : "_ZTIRKN7android2wpINS_14MessageHandlerEEE"
    }
   ],
   "return_type" : "_ZTIv",
   "source_file" : "system/core/libutils/include/utils/Looper.h"
  },
  {
   "function_name" : "android::WeakMessageHandler::WeakMessageHandler",
   "linker_set_key" : "_ZN7android18WeakMessageHandlerC2ERKNS_2wpINS_14MessageHandlerEEE",
   "parameters" :
   [
    {
     "is_this_ptr" : true,
     "referenced_type" : "_ZTIPN7android18WeakMessageHandlerE"
    },
    {
     "referenced_type" : "_ZTIRKN7android2wpINS_14MessageHandlerEEE"
    }
   ],
   "return_type" : "_ZTIv",
   "source_file" : "system/core/libutils/include/utils/Looper.h"
  },
  {
   "access" : "protected",
   "function_name" : "android::WeakMessageHandler::~WeakMessageHandler",
   "linker_set_key" : "_ZN7android18WeakMessageHandlerD0Ev",
   "parameters" :
   [
    {
     "is_this_ptr" : true,
     "referenced_type" : "_ZTIPN7android18WeakMessageHandlerE"
    }
   ],
   "return_type" : "_ZTIv",
   "source_file" : "system/core/libutils/include/utils/Looper.h"
  },
  {
   "access" : "protected",
   "function_name" : "android::WeakMessageHandler::~WeakMessageHandler",
   "linker_set_key" : "_ZN7android18WeakMessageHandlerD1Ev",
   "parameters" :
   [
    {
     "is_this_ptr" : true,
     "referenced_type" : "_ZTIPN7android18WeakMessageHandlerE"
    }
   ],
   "return_type" : "_ZTIv",
   "source_file" : "system/core/libutils/include/utils/Looper.h"
  },
  {
   "access" : "protected",
   "function_name" : "android::WeakMessageHandler::~WeakMessageHandler",
   "linker_set_key" : "_ZN7android18WeakMessageHandlerD2Ev",
   "parameters" :
   [
    {
     "is_this_ptr" : true,
     "referenced_type" : "_ZTIPN7android18WeakMessageHandlerE"
    }
   ],
   "return_type" : "_ZTIv",
   "source_file" : "system/core/libutils/include/utils/Looper.h"
  },
  {
   "function_name" : "android::JenkinsHashMixBytes",
   "linker_set_key" : "_ZN7android19JenkinsHashMixBytesEjPKhm",
   "parameters" :
   [
    {
     "referenced_type" : "_ZTIj"
    },
    {
     "referenced_type" : "_ZTIPKh"
    },
    {
     "referenced_type" : "_ZTIm"
    }
   ],
   "return_type" : "_ZTIj",
   "source_file" : "system/core/libutils/include/utils/JenkinsHash.h"
  },
  {
   "function_name" : "android::elapsedRealtimeNano",
   "linker_set_key" : "_ZN7android19elapsedRealtimeNanoEv",
   "return_type" : "_ZTIl",
   "source_file" : "system/core/libutils/include/utils/SystemClock.h"
  },
  {
   "function_name" : "android::JenkinsHashMixShorts",
   "linker_set_key" : "_ZN7android20JenkinsHashMixShortsEjPKtm",
   "parameters" :
   [
    {
     "referenced_type" : "_ZTIj"
    },
    {
     "referenced_type" : "_ZTIPKt"
    },
    {
     "referenced_type" : "_ZTIm"
    }
   ],
   "return_type" : "_ZTIj",
   "source_file" : "system/core/libutils/include/utils/JenkinsHash.h"
  },
  {
   "function_name" : "android::SimpleLooperCallback::handleEvent",
   "linker_set_key" : "_ZN7android20SimpleLooperCallback11handleEventEiiPv",
   "parameters" :
   [
    {
     "is_this_ptr" : true,
     "referenced_type" : "_ZTIPN7android20SimpleLooperCallbackE"
    },
    {
     "referenced_type" : "_ZTIi"
    },
    {
     "referenced_type" : "_ZTIi"
    },
    {
     "referenced_type" : "_ZTIPv"
    }
   ],
   "return_type" : "_ZTIi",
   "source_file" : "system/core/libutils/include/utils/Looper.h"
  },
  {
   "function_name" : "android::SimpleLooperCallback::SimpleLooperCallback",
   "linker_set_key" : "_ZN7android20SimpleLooperCallbackC1EPFiiiPvE",
   "parameters" :
   [
    {
     "is_this_ptr" : true,
     "referenced_type" : "_ZTIPN7android20SimpleLooperCallbackE"
    },
    {
     "referenced_type" : "_ZTIPFiiiPvE"
    }
   ],
   "return_type" : "_ZTIv",
   "source_file" : "system/core/libutils/include/utils/Looper.h"
  },
  {
   "function_name" : "android::SimpleLooperCallback::SimpleLooperCallback",
   "linker_set_key" : "_ZN7android20SimpleLooperCallbackC2EPFiiiPvE",
   "parameters" :
   [
    {
     "is_this_ptr" : true,
     "referenced_type" : "_ZTIPN7android20SimpleLooperCallbackE"
    },
    {
     "referenced_type" : "_ZTIPFiiiPvE"
    }
   ],
   "return_type" : "_ZTIv",
   "source_file" : "system/core/libutils/include/utils/Looper.h"
  },
  {
   "access" : "protected",
   "function_name" : "android::SimpleLooperCallback::~SimpleLooperCallback",
   "linker_set_key" : "_ZN7android20SimpleLooperCallbackD0Ev",
   "parameters" :
   [
    {
     "is_this_ptr" : true,
     "referenced_type" : "_ZTIPN7android20SimpleLooperCallbackE"
    }
   ],
   "return_type" : "_ZTIv",
   "source_file" : "system/core/libutils/include/utils/Looper.h"
  },
  {
   "access" : "protected",
   "function_name" : "android::SimpleLooperCallback::~SimpleLooperCallback",
   "linker_set_key" : "_ZN7android20SimpleLooperCallbackD1Ev",
   "parameters" :
   [
    {
     "is_this_ptr" : true,
     "referenced_type" : "_ZTIPN7android20SimpleLooperCallbackE"
    }
   ],
   "return_type" : "_ZTIv",
   "source_file" : "system/core/libutils/include/utils/Looper.h"
  },
  {
   "access" : "protected",
   "function_name" : "android::SimpleLooperCallback::~SimpleLooperCallback",
   "linker_set_key" : "_ZN7android20SimpleLooperCallbackD2Ev",
   "parameters" :
   [
    {
     "is_this_ptr" : true,
     "referenced_type" : "_ZTIPN7android20SimpleLooperCallbackE"
    }
   ],
   "return_type" : "_ZTIv",
   "source_file" : "system/core/libutils/include/utils/Looper.h"
  },
  {
   "function_name" : "android::report_sysprop_change",
   "linker_set_key" : "_ZN7android21report_sysprop_changeEv",
   "return_type" : "_ZTIv",
   "source_file" : "system/core/libutils/include/utils/misc.h"
  },
  {
   "function_name" : "android::add_sysprop_change_callback",
   "linker_set_key" : "_ZN7android27add_sysprop_change_callbackEPFvvEi",
   "parameters" :
   [
    {
     "referenced_type" : "_ZTIPFvvE"
    },
    {
     "referenced_type" : "_ZTIi"
    }
   ],
   "return_type" : "_ZTIv",
   "source_file" : "system/core/libutils/include/utils/misc.h"
  },
  {
   "function_name" : "android::LightRefBase_reportIncStrongRequireStrongFailed",
   "linker_set_key" : "_ZN7android47LightRefBase_reportIncStrongRequireStrongFailedEPKv",
   "parameters" :
   [
    {
     "referenced_type" : "_ZTIPKv"
    }
   ],
   "return_type" : "_ZTIv",
   "source_file" : "system/core/libutils/include/utils/LightRefBase.h"
  },
  {
   "function_name" : "android::Looper::sendMessage",
   "linker_set_key" : "_ZN7android6Looper11sendMessageERKNS_2spINS_14MessageHandlerEEERKNS_7MessageE",
   "parameters" :
   [
    {
     "is_this_ptr" : true,
     "referenced_type" : "_ZTIPN7android6LooperE"
    },
    {
     "referenced_type" : "_ZTIRKN7android2spINS_14MessageHandlerEEE"
    },
    {
     "referenced_type" : "_ZTIRKN7android7MessageE"
    }
   ],
   "return_type" : "_ZTIv",
   "source_file" : "system/core/libutils/include/utils/Looper.h"
  },
  {
   "function_name" : "android::Looper::getForThread",
   "linker_set_key" : "_ZN7android6Looper12getForThreadEv",
   "return_type" : "_ZTIN7android2spINS_6LooperEEE",
   "source_file" : "system/core/libutils/include/utils/Looper.h"
  },
  {
   "function_name" : "android::Looper::setForThread",
   "linker_set_key" : "_ZN7android6Looper12setForThreadERKNS_2spIS0_EE",
   "parameters" :
   [
    {
     "referenced_type" : "_ZTIRKN7android2spINS_6LooperEEE"
    }
   ],
   "return_type" : "_ZTIv",
   "source_file" : "system/core/libutils/include/utils/Looper.h"
  },
  {
   "function_name" : "android::Looper::removeMessages",
   "linker_set_key" : "_ZN7android6Looper14removeMessagesERKNS_2spINS_14MessageHandlerEEE",
   "parameters" :
   [
    {
     "is_this_ptr" : true,
     "referenced_type" : "_ZTIPN7android6LooperE"
    },
    {
     "referenced_type" : "_ZTIRKN7android2spINS_14MessageHandlerEEE"
    }
   ],
   "return_type" : "_ZTIv",
   "source_file" : "system/core/libutils/include/utils/Looper.h"
  },
  {
   "function_name" : "android::Looper::removeMessages",
   "linker_set_key" : "_ZN7android6Looper14removeMessagesERKNS_2spINS_14MessageHandlerEEEi",
   "parameters" :
   [
    {
     "is_this_ptr" : true,
     "referenced_type" : "_ZTIPN7android6LooperE"
    },
    {
     "referenced_type" : "_ZTIRKN7android2spINS_14MessageHandlerEEE"
    },
    {
     "referenced_type" : "_ZTIi"
    }
   ],
   "return_type" : "_ZTIv",
   "source_file" : "system/core/libutils/include/utils/Looper.h"
  },
  {
   "function_name" : "android::Looper::getFdStateDebug",
   "linker_set_key" : "_ZN7android6Looper15getFdStateDebugEiPiS1_PNS_2spINS_14LooperCallbackEEEPPv",
   "parameters" :
   [
    {
     "is_this_ptr" : true,
     "referenced_type" : "_ZTIPN7android6LooperE"
    },
    {
     "referenced_type" : "_ZTIi"
    },
    {
     "referenced_type" : "_ZTIPi"
    },
    {
     "referenced_type" : "_ZTIPi"
    },
    {
     "referenced_type" : "_ZTIPN7android2spINS_14LooperCallbackEEE"
    },
    {
     "referenced_type" : "_ZTIPPv"
    }
   ],
   "return_type" : "_ZTIb",
   "source_file" : "system/core/libutils/include/utils/Looper.h"
  },
  {
   "function_name" : "android::Looper::sendMessageAtTime",
   "linker_set_key" : "_ZN7android6Looper17sendMessageAtTimeElRKNS_2spINS_14MessageHandlerEEERKNS_7MessageE",
   "parameters" :
   [
    {
     "is_this_ptr" : true,
     "referenced_type" : "_ZTIPN7android6LooperE"
    },
    {
     "referenced_type" : "_ZTIl"
    },
    {
     "referenced_type" : "_ZTIRKN7android2spINS_14MessageHandlerEEE"
    },
    {
     "referenced_type" : "_ZTIRKN7android7MessageE"
    }
   ],
   "return_type" : "_ZTIv",
   "source_file" : "system/core/libutils/include/utils/Looper.h"
  },
  {
   "access" : "private",
   "function_name" : "android::Looper::rebuildEpollLocked",
   "linker_set_key" : "_ZN7android6Looper18rebuildEpollLockedEv",
   "parameters" :
   [
    {
     "is_this_ptr" : true,
     "referenced_type" : "_ZTIPN7android6LooperE"
    }
   ],
   "return_type" : "_ZTIv",
   "source_file" : "system/core/libutils/include/utils/Looper.h"
  },
  {
   "function_name" : "android::Looper::sendMessageDelayed",
   "linker_set_key" : "_ZN7android6Looper18sendMessageDelayedElRKNS_2spINS_14MessageHandlerEEERKNS_7MessageE",
   "parameters" :
   [
    {
     "is_this_ptr" : true,
     "referenced_type" : "_ZTIPN7android6LooperE"
    },
    {
     "referenced_type" : "_ZTIl"
    },
    {
     "referenced_type" : "_ZTIRKN7android2spINS_14MessageHandlerEEE"
    },
    {
     "referenced_type" : "_ZTIRKN7android7MessageE"
    }
   ],
   "return_type" : "_ZTIv",
   "source_file" : "system/core/libutils/include/utils/Looper.h"
  },
  {
   "access" : "private",
   "function_name" : "android::Looper::removeSequenceNumberLocked",
   "linker_set_key" : "_ZN7android6Looper26removeSequenceNumberLockedEm",
   "parameters" :
   [
    {
     "is_this_ptr" : true,
     "referenced_type" : "_ZTIPN7android6LooperE"
    },
    {
     "referenced_type" : "_ZTIm"
    }
   ],
   "return_type" : "_ZTIi",
   "source_file" : "system/core/libutils/include/utils/Looper.h"
  },
  {
   "access" : "private",
   "function_name" : "android::Looper::scheduleEpollRebuildLocked",
   "linker_set_key" : "_ZN7android6Looper26scheduleEpollRebuildLockedEv",
   "parameters" :
   [
    {
     "is_this_ptr" : true,
     "referenced_type" : "_ZTIPN7android6LooperE"
    }
   ],
   "return_type" : "_ZTIv",
   "source_file" : "system/core/libutils/include/utils/Looper.h"
  },
  {
   "function_name" : "android::Looper::wake",
   "linker_set_key" : "_ZN7android6Looper4wakeEv",
   "parameters" :
   [
    {
     "is_this_ptr" : true,
     "referenced_type" : "_ZTIPN7android6LooperE"
    }
   ],
   "return_type" : "_ZTIv",
   "source_file" : "system/core/libutils/include/utils/Looper.h"
  },
  {
   "function_name" : "android::Looper::addFd",
   "linker_set_key" : "_ZN7android6Looper5addFdEiiiPFiiiPvES1_",
   "parameters" :
   [
    {
     "is_this_ptr" : true,
     "referenced_type" : "_ZTIPN7android6LooperE"
    },
    {
     "referenced_type" : "_ZTIi"
    },
    {
     "referenced_type" : "_ZTIi"
    },
    {
     "referenced_type" : "_ZTIi"
    },
    {
     "referenced_type" : "_ZTIPFiiiPvE"
    },
    {
     "referenced_type" : "_ZTIPv"
    }
   ],
   "return_type" : "_ZTIi",
   "source_file" : "system/core/libutils/include/utils/Looper.h"
  },
  {
   "function_name" : "android::Looper::addFd",
   "linker_set_key" : "_ZN7android6Looper5addFdEiiiRKNS_2spINS_14LooperCallbackEEEPv",
   "parameters" :
   [
    {
     "is_this_ptr" : true,
     "referenced_type" : "_ZTIPN7android6LooperE"
    },
    {
     "referenced_type" : "_ZTIi"
    },
    {
     "referenced_type" : "_ZTIi"
    },
    {
     "referenced_type" : "_ZTIi"
    },
    {
     "referenced_type" : "_ZTIRKN7android2spINS_14LooperCallbackEEE"
    },
    {
     "referenced_type" : "_ZTIPv"
    }
   ],
   "return_type" : "_ZTIi",
   "source_file" : "system/core/libutils/include/utils/Looper.h"
  },
  {
   "access" : "private",
   "function_name" : "android::Looper::awoken",
   "linker_set_key" : "_ZN7android6Looper6awokenEv",
   "parameters" :
   [
    {
     "is_this_ptr" : true,
     "referenced_type" : "_ZTIPN7android6LooperE"
    }
   ],
   "return_type" : "_ZTIv",
   "source_file" : "system/core/libutils/include/utils/Looper.h"
  },
  {
   "function_name" : "android::Looper::repoll",
   "linker_set_key" : "_ZN7android6Looper6repollEi",
   "parameters" :
   [
    {
     "is_this_ptr" : true,
     "referenced_type" : "_ZTIPN7android6LooperE"
    },
    {
     "referenced_type" : "_ZTIi"
    }
   ],
   "return_type" : "_ZTIi",
   "source_file" : "system/core/libutils/include/utils/Looper.h"
  },
  {
   "function_name" : "android::Looper::pollAll",
   "linker_set_key" : "_ZN7android6Looper7pollAllEiPiS1_PPv",
   "parameters" :
   [
    {
     "is_this_ptr" : true,
     "referenced_type" : "_ZTIPN7android6LooperE"
    },
    {
     "referenced_type" : "_ZTIi"
    },
    {
     "referenced_type" : "_ZTIPi"
    },
    {
     "referenced_type" : "_ZTIPi"
    },
    {
     "referenced_type" : "_ZTIPPv"
    }
   ],
   "return_type" : "_ZTIi",
   "source_file" : "system/core/libutils/include/utils/Looper.h"
  },
  {
   "function_name" : "android::Looper::prepare",
   "linker_set_key" : "_ZN7android6Looper7prepareEi",
   "parameters" :
   [
    {
     "referenced_type" : "_ZTIi"
    }
   ],
   "return_type" : "_ZTIN7android2spINS_6LooperEEE",
   "source_file" : "system/core/libutils/include/utils/Looper.h"
  },
  {
   "function_name" : "android::Looper::pollOnce",
   "linker_set_key" : "_ZN7android6Looper8pollOnceEiPiS1_PPv",
   "parameters" :
   [
    {
     "is_this_ptr" : true,
     "referenced_type" : "_ZTIPN7android6LooperE"
    },
    {
     "referenced_type" : "_ZTIi"
    },
    {
     "referenced_type" : "_ZTIPi"
    },
    {
     "referenced_type" : "_ZTIPi"
    },
    {
     "referenced_type" : "_ZTIPPv"
    }
   ],
   "return_type" : "_ZTIi",
   "source_file" : "system/core/libutils/include/utils/Looper.h"
  },
  {
   "function_name" : "android::Looper::removeFd",
   "linker_set_key" : "_ZN7android6Looper8removeFdEi",
   "parameters" :
   [
    {
     "is_this_ptr" : true,
     "referenced_type" : "_ZTIPN7android6LooperE"
    },
    {
     "referenced_type" : "_ZTIi"
    }
   ],
   "return_type" : "_ZTIi",
   "source_file" : "system/core/libutils/include/utils/Looper.h"
  },
  {
   "access" : "private",
   "function_name" : "android::Looper::pollInner",
   "linker_set_key" : "_ZN7android6Looper9pollInnerEi",
   "parameters" :
   [
    {
     "is_this_ptr" : true,
     "referenced_type" : "_ZTIPN7android6LooperE"
    },
    {
     "referenced_type" : "_ZTIi"
    }
   ],
   "return_type" : "_ZTIi",
   "source_file" : "system/core/libutils/include/utils/Looper.h"
  },
  {
   "function_name" : "android::Looper::Looper",
   "linker_set_key" : "_ZN7android6LooperC1Eb",
   "parameters" :
   [
    {
     "is_this_ptr" : true,
     "referenced_type" : "_ZTIPN7android6LooperE"
    },
    {
     "referenced_type" : "_ZTIb"
    }
   ],
   "return_type" : "_ZTIv",
   "source_file" : "system/core/libutils/include/utils/Looper.h"
  },
  {
   "function_name" : "android::Looper::Looper",
   "linker_set_key" : "_ZN7android6LooperC2Eb",
   "parameters" :
   [
    {
     "is_this_ptr" : true,
     "referenced_type" : "_ZTIPN7android6LooperE"
    },
    {
     "referenced_type" : "_ZTIb"
    }
   ],
   "return_type" : "_ZTIv",
   "source_file" : "system/core/libutils/include/utils/Looper.h"
  },
  {
   "access" : "protected",
   "function_name" : "android::Looper::~Looper",
   "linker_set_key" : "_ZN7android6LooperD0Ev",
   "parameters" :
   [
    {
     "is_this_ptr" : true,
     "referenced_type" : "_ZTIPN7android6LooperE"
    }
   ],
   "return_type" : "_ZTIv",
   "source_file" : "system/core/libutils/include/utils/Looper.h"
  },
  {
   "access" : "protected",
   "function_name" : "android::Looper::~Looper",
   "linker_set_key" : "_ZN7android6LooperD1Ev",
   "parameters" :
   [
    {
     "is_this_ptr" : true,
     "referenced_type" : "_ZTIPN7android6LooperE"
    }
   ],
   "return_type" : "_ZTIv",
   "source_file" : "system/core/libutils/include/utils/Looper.h"
  },
  {
   "access" : "protected",
   "function_name" : "android::Looper::~Looper",
   "linker_set_key" : "_ZN7android6LooperD2Ev",
   "parameters" :
   [
    {
     "is_this_ptr" : true,
     "referenced_type" : "_ZTIPN7android6LooperE"
    }
   ],
   "return_type" : "_ZTIv",
   "source_file" : "system/core/libutils/include/utils/Looper.h"
  },
  {
   "function_name" : "android::Thread::readyToRun",
   "linker_set_key" : "_ZN7android6Thread10readyToRunEv",
   "parameters" :
   [
    {
     "is_this_ptr" : true,
     "referenced_type" : "_ZTIPN7android6ThreadE"
    }
   ],
   "return_type" : "_ZTIi",
   "source_file" : "system/core/libutils/include/utils/Thread.h"
  },
  {
   "access" : "private",
   "function_name" : "android::Thread::_threadLoop",
   "linker_set_key" : "_ZN7android6Thread11_threadLoopEPv",
   "parameters" :
   [
    {
     "referenced_type" : "_ZTIPv"
    }
   ],
   "return_type" : "_ZTIi",
   "source_file" : "system/core/libutils/include/utils/Thread.h"
  },
  {
   "function_name" : "android::Thread::requestExit",
   "linker_set_key" : "_ZN7android6Thread11requestExitEv",
   "parameters" :
   [
    {
     "is_this_ptr" : true,
     "referenced_type" : "_ZTIPN7android6ThreadE"
    }
   ],
   "return_type" : "_ZTIv",
   "source_file" : "system/core/libutils/include/utils/Thread.h"
  },
  {
   "function_name" : "android::Thread::requestExitAndWait",
   "linker_set_key" : "_ZN7android6Thread18requestExitAndWaitEv",
   "parameters" :
   [
    {
     "is_this_ptr" : true,
     "referenced_type" : "_ZTIPN7android6ThreadE"
    }
   ],
   "return_type" : "_ZTIi",
   "source_file" : "system/core/libutils/include/utils/Thread.h"
  },
  {
   "function_name" : "android::Thread::run",
   "linker_set_key" : "_ZN7android6Thread3runEPKcim",
   "parameters" :
   [
    {
     "is_this_ptr" : true,
     "referenced_type" : "_ZTIPN7android6ThreadE"
    },
    {
     "referenced_type" : "_ZTIPKc"
    },
    {
     "default_arg" : true,
     "referenced_type" : "_ZTIi"
    },
    {
     "default_arg" : true,
     "referenced_type" : "_ZTIm"
    }
   ],
   "return_type" : "_ZTIi",
   "source_file" : "system/core/libutils/include/utils/Thread.h"
  },
  {
   "function_name" : "android::Thread::join",
   "linker_set_key" : "_ZN7android6Thread4joinEv",
   "parameters" :
   [
    {
     "is_this_ptr" : true,
     "referenced_type" : "_ZTIPN7android6ThreadE"
    }
   ],
   "return_type" : "_ZTIi",
   "source_file" : "system/core/libutils/include/utils/Thread.h"
  },
  {
   "function_name" : "android::Thread::Thread",
   "linker_set_key" : "_ZN7android6ThreadC2Eb",
   "parameters" :
   [
    {
     "is_this_ptr" : true,
     "referenced_type" : "_ZTIPN7android6ThreadE"
    },
    {
     "default_arg" : true,
     "referenced_type" : "_ZTIb"
    }
   ],
   "return_type" : "_ZTIv",
   "source_file" : "system/core/libutils/include/utils/Thread.h"
  },
  {
   "function_name" : "android::Thread::~Thread",
   "linker_set_key" : "_ZN7android6ThreadD0Ev",
   "parameters" :
   [
    {
     "is_this_ptr" : true,
     "referenced_type" : "_ZTIPN7android6ThreadE"
    }
   ],
   "return_type" : "_ZTIv",
   "source_file" : "system/core/libutils/include/utils/Thread.h"
  },
  {
   "function_name" : "android::Thread::~Thread",
   "linker_set_key" : "_ZN7android6ThreadD1Ev",
   "parameters" :
   [
    {
     "is_this_ptr" : true,
     "referenced_type" : "_ZTIPN7android6ThreadE"
    }
   ],
   "return_type" : "_ZTIv",
   "source_file" : "system/core/libutils/include/utils/Thread.h"
  },
  {
   "function_name" : "android::Thread::~Thread",
   "linker_set_key" : "_ZN7android6ThreadD2Ev",
   "parameters" :
   [
    {
     "is_this_ptr" : true,
     "referenced_type" : "_ZTIPN7android6ThreadE"
    }
   ],
   "return_type" : "_ZTIv",
   "source_file" : "system/core/libutils/include/utils/Thread.h"
  },
  {
   "function_name" : "android::FileMap::advise",
   "linker_set_key" : "_ZN7android7FileMap6adviseENS0_9MapAdviceE",
   "parameters" :
   [
    {
     "is_this_ptr" : true,
     "referenced_type" : "_ZTIPN7android7FileMapE"
    },
    {
     "referenced_type" : "_ZTIN7android7FileMap9MapAdviceE"
    }
   ],
   "return_type" : "_ZTIi",
   "source_file" : "system/core/libutils/include/utils/FileMap.h"
  },
  {
   "function_name" : "android::FileMap::create",
   "linker_set_key" : "_ZN7android7FileMap6createEPKcilmb",
   "parameters" :
   [
    {
     "is_this_ptr" : true,
     "referenced_type" : "_ZTIPN7android7FileMapE"
    },
    {
     "referenced_type" : "_ZTIPKc"
    },
    {
     "referenced_type" : "_ZTIi"
    },
    {
     "referenced_type" : "_ZTIl"
    },
    {
     "referenced_type" : "_ZTIm"
    },
    {
     "referenced_type" : "_ZTIb"
    }
   ],
   "return_type" : "_ZTIb",
   "source_file" : "system/core/libutils/include/utils/FileMap.h"
  },
  {
   "function_name" : "android::FileMap::FileMap",
   "linker_set_key" : "_ZN7android7FileMapC1EOS0_",
   "parameters" :
   [
    {
     "is_this_ptr" : true,
     "referenced_type" : "_ZTIPN7android7FileMapE"
    },
    {
     "referenced_type" : "_ZTION7android7FileMapE"
    }
   ],
   "return_type" : "_ZTIv",
   "source_file" : "system/core/libutils/include/utils/FileMap.h"
  },
  {
   "function_name" : "android::FileMap::FileMap",
   "linker_set_key" : "_ZN7android7FileMapC1Ev",
   "parameters" :
   [
    {
     "is_this_ptr" : true,
     "referenced_type" : "_ZTIPN7android7FileMapE"
    }
   ],
   "return_type" : "_ZTIv",
   "source_file" : "system/core/libutils/include/utils/FileMap.h"
  },
  {
   "function_name" : "android::FileMap::FileMap",
   "linker_set_key" : "_ZN7android7FileMapC2EOS0_",
   "parameters" :
   [
    {
     "is_this_ptr" : true,
     "referenced_type" : "_ZTIPN7android7FileMapE"
    },
    {
     "referenced_type" : "_ZTION7android7FileMapE"
    }
   ],
   "return_type" : "_ZTIv",
   "source_file" : "system/core/libutils/include/utils/FileMap.h"
  },
  {
   "function_name" : "android::FileMap::FileMap",
   "linker_set_key" : "_ZN7android7FileMapC2Ev",
   "parameters" :
   [
    {
     "is_this_ptr" : true,
     "referenced_type" : "_ZTIPN7android7FileMapE"
    }
   ],
   "return_type" : "_ZTIv",
   "source_file" : "system/core/libutils/include/utils/FileMap.h"
  },
  {
   "function_name" : "android::FileMap::~FileMap",
   "linker_set_key" : "_ZN7android7FileMapD1Ev",
   "parameters" :
   [
    {
     "is_this_ptr" : true,
     "referenced_type" : "_ZTIPN7android7FileMapE"
    }
   ],
   "return_type" : "_ZTIv",
   "source_file" : "system/core/libutils/include/utils/FileMap.h"
  },
  {
   "function_name" : "android::FileMap::~FileMap",
   "linker_set_key" : "_ZN7android7FileMapD2Ev",
   "parameters" :
   [
    {
     "is_this_ptr" : true,
     "referenced_type" : "_ZTIPN7android7FileMapE"
    }
   ],
   "return_type" : "_ZTIv",
   "source_file" : "system/core/libutils/include/utils/FileMap.h"
  },
  {
   "function_name" : "android::FileMap::operator=",
   "linker_set_key" : "_ZN7android7FileMapaSEOS0_",
   "parameters" :
   [
    {
     "is_this_ptr" : true,
     "referenced_type" : "_ZTIPN7android7FileMapE"
    },
    {
     "referenced_type" : "_ZTION7android7FileMapE"
    }
   ],
   "return_type" : "_ZTIRN7android7FileMapE",
   "source_file" : "system/core/libutils/include/utils/FileMap.h"
  },
  {
   "function_name" : "android::Printer::printFormatLine",
   "linker_set_key" : "_ZN7android7Printer15printFormatLineEPKcz",
   "parameters" :
   [
    {
     "is_this_ptr" : true,
     "referenced_type" : "_ZTIPN7android7PrinterE"
    },
    {
     "referenced_type" : "_ZTIPKc"
    }
   ],
   "return_type" : "_ZTIv",
   "source_file" : "system/core/libutils/include/utils/Printer.h"
  },
  {
   "access" : "protected",
   "function_name" : "android::Printer::Printer",
   "linker_set_key" : "_ZN7android7PrinterC2Ev",
   "parameters" :
   [
    {
     "is_this_ptr" : true,
     "referenced_type" : "_ZTIPN7android7PrinterE"
    }
   ],
   "return_type" : "_ZTIv",
   "source_file" : "system/core/libutils/include/utils/Printer.h"
  },
  {
   "access" : "protected",
   "function_name" : "android::Printer::~Printer",
   "linker_set_key" : "_ZN7android7PrinterD0Ev",
   "parameters" :
   [
    {
     "is_this_ptr" : true,
     "referenced_type" : "_ZTIPN7android7PrinterE"
    }
   ],
   "return_type" : "_ZTIv",
   "source_file" : "system/core/libutils/include/utils/Printer.h"
  },
  {
   "access" : "protected",
   "function_name" : "android::Printer::~Printer",
   "linker_set_key" : "_ZN7android7PrinterD1Ev",
   "parameters" :
   [
    {
     "is_this_ptr" : true,
     "referenced_type" : "_ZTIPN7android7PrinterE"
    }
   ],
   "return_type" : "_ZTIv",
   "source_file" : "system/core/libutils/include/utils/Printer.h"
  },
  {
   "access" : "protected",
   "function_name" : "android::Printer::~Printer",
   "linker_set_key" : "_ZN7android7PrinterD2Ev",
   "parameters" :
   [
    {
     "is_this_ptr" : true,
     "referenced_type" : "_ZTIPN7android7PrinterE"
    }
   ],
   "return_type" : "_ZTIv",
   "source_file" : "system/core/libutils/include/utils/Printer.h"
  },
  {
   "access" : "protected",
   "function_name" : "android::RefBase::onFirstRef",
   "linker_set_key" : "_ZN7android7RefBase10onFirstRefEv",
   "parameters" :
   [
    {
     "is_this_ptr" : true,
     "referenced_type" : "_ZTIPN7android7RefBaseE#ODR:out/soong/.intermediates/system/core/libutils/binder/libutils_binder/android_vendor_arm64_armv8-a_cortex-a53_static_afdo-libutils/obj/system/core/libutils/binder/RefBase.sdump"
    }
   ],
   "return_type" : "_ZTIv",
   "source_file" : "system/core/libutils/binder/include/utils/RefBase.h"
  },
  {
   "access" : "private",
   "function_name" : "android::RefBase::renameRefs",
   "linker_set_key" : "_ZN7android7RefBase10renameRefsEmRKNS_16ReferenceRenamerE",
   "parameters" :
   [
    {
     "referenced_type" : "_ZTIm"
    },
    {
     "referenced_type" : "_ZTIRKN7android16ReferenceRenamerE"
    }
   ],
   "return_type" : "_ZTIv",
   "source_file" : "system/core/libutils/binder/include/utils/RefBase.h"
  },
  {
   "access" : "private",
   "function_name" : "android::RefBase::renameRefId",
   "linker_set_key" : "_ZN7android7RefBase11renameRefIdEPNS0_12weakref_typeEPKvS4_",
   "parameters" :
   [
    {
     "referenced_type" : "_ZTIPN7android7RefBase12weakref_typeE#ODR:out/soong/.intermediates/system/core/libutils/binder/libutils_binder/android_vendor_arm64_armv8-a_cortex-a53_static_afdo-libutils/obj/system/core/libutils/binder/RefBase.sdump"
    },
    {
     "referenced_type" : "_ZTIPKv"
    },
    {
     "referenced_type" : "_ZTIPKv"
    }
   ],
   "return_type" : "_ZTIv",
   "source_file" : "system/core/libutils/binder/include/utils/RefBase.h"
  },
  {
   "access" : "private",
   "function_name" : "android::RefBase::renameRefId",
   "linker_set_key" : "_ZN7android7RefBase11renameRefIdEPS0_PKvS3_",
   "parameters" :
   [
    {
     "referenced_type" : "_ZTIPN7android7RefBaseE#ODR:out/soong/.intermediates/system/core/libutils/binder/libutils_binder/android_vendor_arm64_armv8-a_cortex-a53_static_afdo-libutils/obj/system/core/libutils/binder/RefBase.sdump"
    },
    {
     "referenced_type" : "_ZTIPKv"
    },
    {
     "referenced_type" : "_ZTIPKv"
    }
   ],
   "return_type" : "_ZTIv",
   "source_file" : "system/core/libutils/binder/include/utils/RefBase.h"
  },
  {
   "function_name" : "android::RefBase::weakref_type::attemptIncWeak",
   "linker_set_key" : "_ZN7android7RefBase12weakref_type14attemptIncWeakEPKv",
   "parameters" :
   [
    {
     "is_this_ptr" : true,
     "referenced_type" : "_ZTIPN7android7RefBase12weakref_typeE#ODR:out/soong/.intermediates/system/core/libutils/binder/libutils_binder/android_vendor_arm64_armv8-a_cortex-a53_static_afdo-libutils/obj/system/core/libutils/binder/RefBase.sdump"
    },
    {
     "referenced_type" : "_ZTIPKv"
    }
   ],
   "return_type" : "_ZTIb",
   "source_file" : "system/core/libutils/binder/include/utils/RefBase.h"
  },
  {
   "function_name" : "android::RefBase::weakref_type::attemptIncStrong",
   "linker_set_key" : "_ZN7android7RefBase12weakref_type16attemptIncStrongEPKv",
   "parameters" :
   [
    {
     "is_this_ptr" : true,
     "referenced_type" : "_ZTIPN7android7RefBase12weakref_typeE#ODR:out/soong/.intermediates/system/core/libutils/binder/libutils_binder/android_vendor_arm64_armv8-a_cortex-a53_static_afdo-libutils/obj/system/core/libutils/binder/RefBase.sdump"
    },
    {
     "referenced_type" : "_ZTIPKv"
    }
   ],
   "return_type" : "_ZTIb",
   "source_file" : "system/core/libutils/binder/include/utils/RefBase.h"
  },
  {
   "function_name" : "android::RefBase::weakref_type::incWeakRequireWeak",
   "linker_set_key" : "_ZN7android7RefBase12weakref_type18incWeakRequireWeakEPKv",
   "parameters" :
   [
    {
     "is_this_ptr" : true,
     "referenced_type" : "_ZTIPN7android7RefBase12weakref_typeE#ODR:out/soong/.intermediates/system/core/libutils/binder/libutils_binder/android_vendor_arm64_armv8-a_cortex-a53_static_afdo-libutils/obj/system/core/libutils/binder/RefBase.sdump"
    },
    {
     "referenced_type" : "_ZTIPKv"
    }
   ],
   "return_type" : "_ZTIv",
   "source_file" : "system/core/libutils/binder/include/utils/RefBase.h"
  },
  {
   "function_name" : "android::RefBase::weakref_type::decWeak",
   "linker_set_key" : "_ZN7android7RefBase12weakref_type7decWeakEPKv",
   "parameters" :
   [
    {
     "is_this_ptr" : true,
     "referenced_type" : "_ZTIPN7android7RefBase12weakref_typeE#ODR:out/soong/.intermediates/system/core/libutils/binder/libutils_binder/android_vendor_arm64_armv8-a_cortex-a53_static_afdo-libutils/obj/system/core/libutils/binder/RefBase.sdump"
    },
    {
     "referenced_type" : "_ZTIPKv"
    }
   ],
   "return_type" : "_ZTIv",
   "source_file" : "system/core/libutils/binder/include/utils/RefBase.h"
  },
  {
   "function_name" : "android::RefBase::weakref_type::incWeak",
   "linker_set_key" : "_ZN7android7RefBase12weakref_type7incWeakEPKv",
   "parameters" :
   [
    {
     "is_this_ptr" : true,
     "referenced_type" : "_ZTIPN7android7RefBase12weakref_typeE#ODR:out/soong/.intermediates/system/core/libutils/binder/libutils_binder/android_vendor_arm64_armv8-a_cortex-a53_static_afdo-libutils/obj/system/core/libutils/binder/RefBase.sdump"
    },
    {
     "referenced_type" : "_ZTIPKv"
    }
   ],
   "return_type" : "_ZTIv",
   "source_file" : "system/core/libutils/binder/include/utils/RefBase.h"
  },
  {
   "function_name" : "android::RefBase::weakref_type::trackMe",
   "linker_set_key" : "_ZN7android7RefBase12weakref_type7trackMeEbb",
   "parameters" :
   [
    {
     "is_this_ptr" : true,
     "referenced_type" : "_ZTIPN7android7RefBase12weakref_typeE#ODR:out/soong/.intermediates/system/core/libutils/binder/libutils_binder/android_vendor_arm64_armv8-a_cortex-a53_static_afdo-libutils/obj/system/core/libutils/binder/RefBase.sdump"
    },
    {
     "referenced_type" : "_ZTIb"
    },
    {
     "referenced_type" : "_ZTIb"
    }
   ],
   "return_type" : "_ZTIv",
   "source_file" : "system/core/libutils/binder/include/utils/RefBase.h"
  },
  {
   "access" : "protected",
   "function_name" : "android::RefBase::onLastWeakRef",
   "linker_set_key" : "_ZN7android7RefBase13onLastWeakRefEPKv",
   "parameters" :
   [
    {
     "is_this_ptr" : true,
     "referenced_type" : "_ZTIPN7android7RefBaseE#ODR:out/soong/.intermediates/system/core/libutils/binder/libutils_binder/android_vendor_arm64_armv8-a_cortex-a53_static_afdo-libutils/obj/system/core/libutils/binder/RefBase.sdump"
    },
    {
     "referenced_type" : "_ZTIPKv"
    }
   ],
   "return_type" : "_ZTIv",
   "source_file" : "system/core/libutils/binder/include/utils/RefBase.h"
  },
  {
   "access" : "protected",
   "function_name" : "android::RefBase::onLastStrongRef",
   "linker_set_key" : "_ZN7android7RefBase15onLastStrongRefEPKv",
   "parameters" :
   [
    {
     "is_this_ptr" : true,
     "referenced_type" : "_ZTIPN7android7RefBaseE#ODR:out/soong/.intermediates/system/core/libutils/binder/libutils_binder/android_vendor_arm64_armv8-a_cortex-a53_static_afdo-libutils/obj/system/core/libutils/binder/RefBase.sdump"
    },
    {
     "referenced_type" : "_ZTIPKv"
    }
   ],
   "return_type" : "_ZTIv",
   "source_file" : "system/core/libutils/binder/include/utils/RefBase.h"
  },
  {
   "access" : "protected",
   "function_name" : "android::RefBase::extendObjectLifetime",
   "linker_set_key" : "_ZN7android7RefBase20extendObjectLifetimeEi",
   "parameters" :
   [
    {
     "is_this_ptr" : true,
     "referenced_type" : "_ZTIPN7android7RefBaseE#ODR:out/soong/.intermediates/system/core/libutils/binder/libutils_binder/android_vendor_arm64_armv8-a_cortex-a53_static_afdo-libutils/obj/system/core/libutils/binder/RefBase.sdump"
    },
    {
     "referenced_type" : "_ZTIi"
    }
   ],
   "return_type" : "_ZTIv",
   "source_file" : "system/core/libutils/binder/include/utils/RefBase.h"
  },
  {
   "access" : "protected",
   "function_name" : "android::RefBase::onIncStrongAttempted",
   "linker_set_key" : "_ZN7android7RefBase20onIncStrongAttemptedEjPKv",
   "parameters" :
   [
    {
     "is_this_ptr" : true,
     "referenced_type" : "_ZTIPN7android7RefBaseE#ODR:out/soong/.intermediates/system/core/libutils/binder/libutils_binder/android_vendor_arm64_armv8-a_cortex-a53_static_afdo-libutils/obj/system/core/libutils/binder/RefBase.sdump"
    },
    {
     "referenced_type" : "_ZTIj"
    },
    {
     "referenced_type" : "_ZTIPKv"
    }
   ],
   "return_type" : "_ZTIb",
   "source_file" : "system/core/libutils/binder/include/utils/RefBase.h"
  },
  {
   "access" : "protected",
   "function_name" : "android::RefBase::RefBase",
   "linker_set_key" : "_ZN7android7RefBaseC1Ev",
   "parameters" :
   [
    {
     "is_this_ptr" : true,
     "referenced_type" : "_ZTIPN7android7RefBaseE#ODR:out/soong/.intermediates/system/core/libutils/binder/libutils_binder/android_vendor_arm64_armv8-a_cortex-a53_static_afdo-libutils/obj/system/core/libutils/binder/RefBase.sdump"
    }
   ],
   "return_type" : "_ZTIv",
   "source_file" : "system/core/libutils/binder/include/utils/RefBase.h"
  },
  {
   "access" : "protected",
   "function_name" : "android::RefBase::RefBase",
   "linker_set_key" : "_ZN7android7RefBaseC2Ev",
   "parameters" :
   [
    {
     "is_this_ptr" : true,
     "referenced_type" : "_ZTIPN7android7RefBaseE#ODR:out/soong/.intermediates/system/core/libutils/binder/libutils_binder/android_vendor_arm64_armv8-a_cortex-a53_static_afdo-libutils/obj/system/core/libutils/binder/RefBase.sdump"
    }
   ],
   "return_type" : "_ZTIv",
   "source_file" : "system/core/libutils/binder/include/utils/RefBase.h"
  },
  {
   "access" : "protected",
   "function_name" : "android::RefBase::~RefBase",
   "linker_set_key" : "_ZN7android7RefBaseD0Ev",
   "parameters" :
   [
    {
     "is_this_ptr" : true,
     "referenced_type" : "_ZTIPN7android7RefBaseE#ODR:out/soong/.intermediates/system/core/libutils/binder/libutils_binder/android_vendor_arm64_armv8-a_cortex-a53_static_afdo-libutils/obj/system/core/libutils/binder/RefBase.sdump"
    }
   ],
   "return_type" : "_ZTIv",
   "source_file" : "system/core/libutils/binder/include/utils/RefBase.h"
  },
  {
   "access" : "protected",
   "function_name" : "android::RefBase::~RefBase",
   "linker_set_key" : "_ZN7android7RefBaseD1Ev",
   "parameters" :
   [
    {
     "is_this_ptr" : true,
     "referenced_type" : "_ZTIPN7android7RefBaseE#ODR:out/soong/.intermediates/system/core/libutils/binder/libutils_binder/android_vendor_arm64_armv8-a_cortex-a53_static_afdo-libutils/obj/system/core/libutils/binder/RefBase.sdump"
    }
   ],
   "return_type" : "_ZTIv",
   "source_file" : "system/core/libutils/binder/include/utils/RefBase.h"
  },
  {
   "access" : "protected",
   "function_name" : "android::RefBase::~RefBase",
   "linker_set_key" : "_ZN7android7RefBaseD2Ev",
   "parameters" :
   [
    {
     "is_this_ptr" : true,
     "referenced_type" : "_ZTIPN7android7RefBaseE#ODR:out/soong/.intermediates/system/core/libutils/binder/libutils_binder/android_vendor_arm64_armv8-a_cortex-a53_static_afdo-libutils/obj/system/core/libutils/binder/RefBase.sdump"
    }
   ],
   "return_type" : "_ZTIv",
   "source_file" : "system/core/libutils/binder/include/utils/RefBase.h"
  },
  {
   "function_name" : "android::String8::lockBuffer",
   "linker_set_key" : "_ZN7android7String810lockBufferEm",
   "parameters" :
   [
    {
     "is_this_ptr" : true,
     "referenced_type" : "_ZTIPN7android7String8E#ODR:out/soong/.intermediates/system/core/libutils/binder/libutils_binder/android_vendor_arm64_armv8-a_cortex-a53_static_afdo-libutils/obj/system/core/libutils/binder/RefBase.sdump"
    },
    {
     "referenced_type" : "_ZTIm"
    }
   ],
   "return_type" : "_ZTIPc",
   "source_file" : "system/core/libutils/binder/include/utils/String8.h"
  },
  {
   "access" : "private",
   "function_name" : "android::String8::real_append",
   "linker_set_key" : "_ZN7android7String811real_appendEPKcm",
   "parameters" :
   [
    {
     "is_this_ptr" : true,
     "referenced_type" : "_ZTIPN7android7String8E#ODR:out/soong/.intermediates/system/core/libutils/binder/libutils_binder/android_vendor_arm64_armv8-a_cortex-a53_static_afdo-libutils/obj/system/core/libutils/binder/RefBase.sdump"
    },
    {
     "referenced_type" : "_ZTIPKc"
    },
    {
     "referenced_type" : "_ZTIm"
    }
   ],
   "return_type" : "_ZTIi",
   "source_file" : "system/core/libutils/binder/include/utils/String8.h"
  },
  {
   "function_name" : "android::String8::appendFormat",
   "linker_set_key" : "_ZN7android7String812appendFormatEPKcz",
   "parameters" :
   [
    {
     "is_this_ptr" : true,
     "referenced_type" : "_ZTIPN7android7String8E#ODR:out/soong/.intermediates/system/core/libutils/binder/libutils_binder/android_vendor_arm64_armv8-a_cortex-a53_static_afdo-libutils/obj/system/core/libutils/binder/RefBase.sdump"
    },
    {
     "referenced_type" : "_ZTIPKc"
    }
   ],
   "return_type" : "_ZTIi",
   "source_file" : "system/core/libutils/binder/include/utils/String8.h"
  },
  {
   "function_name" : "android::String8::unlockBuffer",
   "linker_set_key" : "_ZN7android7String812unlockBufferEm",
   "parameters" :
   [
    {
     "is_this_ptr" : true,
     "referenced_type" : "_ZTIPN7android7String8E#ODR:out/soong/.intermediates/system/core/libutils/binder/libutils_binder/android_vendor_arm64_armv8-a_cortex-a53_static_afdo-libutils/obj/system/core/libutils/binder/RefBase.sdump"
    },
    {
     "referenced_type" : "_ZTIm"
    }
   ],
   "return_type" : "_ZTIi",
   "source_file" : "system/core/libutils/binder/include/utils/String8.h"
  },
  {
   "function_name" : "android::String8::unlockBuffer",
   "linker_set_key" : "_ZN7android7String812unlockBufferEv",
   "parameters" :
   [
    {
     "is_this_ptr" : true,
     "referenced_type" : "_ZTIPN7android7String8E#ODR:out/soong/.intermediates/system/core/libutils/binder/libutils_binder/android_vendor_arm64_armv8-a_cortex-a53_static_afdo-libutils/obj/system/core/libutils/binder/RefBase.sdump"
    }
   ],
   "return_type" : "_ZTIv",
   "source_file" : "system/core/libutils/binder/include/utils/String8.h"
  },
  {
   "function_name" : "android::String8::appendFormatV",
   "linker_set_key" : "_ZN7android7String813appendFormatVEPKcSt9__va_list",
   "parameters" :
   [
    {
     "is_this_ptr" : true,
     "referenced_type" : "_ZTIPN7android7String8E#ODR:out/soong/.intermediates/system/core/libutils/binder/libutils_binder/android_vendor_arm64_armv8-a_cortex-a53_static_afdo-libutils/obj/system/core/libutils/binder/RefBase.sdump"
    },
    {
     "referenced_type" : "_ZTIPKc"
    },
    {
     "referenced_type" : "_ZTISt9__va_list"
    }
   ],
   "return_type" : "_ZTIi",
   "source_file" : "system/core/libutils/binder/include/utils/String8.h"
  },
  {
   "function_name" : "android::String8::clear",
   "linker_set_key" : "_ZN7android7String85clearEv",
   "parameters" :
   [
    {
     "is_this_ptr" : true,
     "referenced_type" : "_ZTIPN7android7String8E#ODR:out/soong/.intermediates/system/core/libutils/binder/libutils_binder/android_vendor_arm64_armv8-a_cortex-a53_static_afdo-libutils/obj/system/core/libutils/binder/RefBase.sdump"
    }
   ],
   "return_type" : "_ZTIv",
   "source_file" : "system/core/libutils/binder/include/utils/String8.h"
  },
  {
   "function_name" : "android::String8::setTo",
   "linker_set_key" : "_ZN7android7String85setToEPKDim",
   "parameters" :
   [
    {
     "is_this_ptr" : true,
     "referenced_type" : "_ZTIPN7android7String8E#ODR:out/soong/.intermediates/system/core/libutils/binder/libutils_binder/android_vendor_arm64_armv8-a_cortex-a53_static_afdo-libutils/obj/system/core/libutils/binder/RefBase.sdump"
    },
    {
     "referenced_type" : "_ZTIPKDi"
    },
    {
     "referenced_type" : "_ZTIm"
    }
   ],
   "return_type" : "_ZTIi",
   "source_file" : "system/core/libutils/binder/include/utils/String8.h"
  },
  {
   "function_name" : "android::String8::setTo",
   "linker_set_key" : "_ZN7android7String85setToEPKDsm",
   "parameters" :
   [
    {
     "is_this_ptr" : true,
     "referenced_type" : "_ZTIPN7android7String8E#ODR:out/soong/.intermediates/system/core/libutils/binder/libutils_binder/android_vendor_arm64_armv8-a_cortex-a53_static_afdo-libutils/obj/system/core/libutils/binder/RefBase.sdump"
    },
    {
     "referenced_type" : "_ZTIPKDs"
    },
    {
     "referenced_type" : "_ZTIm"
    }
   ],
   "return_type" : "_ZTIi",
   "source_file" : "system/core/libutils/binder/include/utils/String8.h"
  },
  {
   "function_name" : "android::String8::setTo",
   "linker_set_key" : "_ZN7android7String85setToEPKc",
   "parameters" :
   [
    {
     "is_this_ptr" : true,
     "referenced_type" : "_ZTIPN7android7String8E#ODR:out/soong/.intermediates/system/core/libutils/binder/libutils_binder/android_vendor_arm64_armv8-a_cortex-a53_static_afdo-libutils/obj/system/core/libutils/binder/RefBase.sdump"
    },
    {
     "referenced_type" : "_ZTIPKc"
    }
   ],
   "return_type" : "_ZTIi",
   "source_file" : "system/core/libutils/binder/include/utils/String8.h"
  },
  {
   "function_name" : "android::String8::setTo",
   "linker_set_key" : "_ZN7android7String85setToEPKcm",
   "parameters" :
   [
    {
     "is_this_ptr" : true,
     "referenced_type" : "_ZTIPN7android7String8E#ODR:out/soong/.intermediates/system/core/libutils/binder/libutils_binder/android_vendor_arm64_armv8-a_cortex-a53_static_afdo-libutils/obj/system/core/libutils/binder/RefBase.sdump"
    },
    {
     "referenced_type" : "_ZTIPKc"
    },
    {
     "referenced_type" : "_ZTIm"
    }
   ],
   "return_type" : "_ZTIi",
   "source_file" : "system/core/libutils/binder/include/utils/String8.h"
  },
  {
   "function_name" : "android::String8::setTo",
   "linker_set_key" : "_ZN7android7String85setToERKS0_",
   "parameters" :
   [
    {
     "is_this_ptr" : true,
     "referenced_type" : "_ZTIPN7android7String8E#ODR:out/soong/.intermediates/system/core/libutils/binder/libutils_binder/android_vendor_arm64_armv8-a_cortex-a53_static_afdo-libutils/obj/system/core/libutils/binder/RefBase.sdump"
    },
    {
     "referenced_type" : "_ZTIRKN7android7String8E#ODR:out/soong/.intermediates/system/core/libutils/binder/libutils_binder/android_vendor_arm64_armv8-a_cortex-a53_static_afdo-libutils/obj/system/core/libutils/binder/RefBase.sdump"
    }
   ],
   "return_type" : "_ZTIv",
   "source_file" : "system/core/libutils/binder/include/utils/String8.h"
  },
  {
   "function_name" : "android::String8::append",
   "linker_set_key" : "_ZN7android7String86appendEPKc",
   "parameters" :
   [
    {
     "is_this_ptr" : true,
     "referenced_type" : "_ZTIPN7android7String8E#ODR:out/soong/.intermediates/system/core/libutils/binder/libutils_binder/android_vendor_arm64_armv8-a_cortex-a53_static_afdo-libutils/obj/system/core/libutils/binder/RefBase.sdump"
    },
    {
     "referenced_type" : "_ZTIPKc"
    }
   ],
   "return_type" : "_ZTIi",
   "source_file" : "system/core/libutils/binder/include/utils/String8.h"
  },
  {
   "function_name" : "android::String8::append",
   "linker_set_key" : "_ZN7android7String86appendEPKcm",
   "parameters" :
   [
    {
     "is_this_ptr" : true,
     "referenced_type" : "_ZTIPN7android7String8E#ODR:out/soong/.intermediates/system/core/libutils/binder/libutils_binder/android_vendor_arm64_armv8-a_cortex-a53_static_afdo-libutils/obj/system/core/libutils/binder/RefBase.sdump"
    },
    {
     "referenced_type" : "_ZTIPKc"
    },
    {
     "referenced_type" : "_ZTIm"
    }
   ],
   "return_type" : "_ZTIi",
   "source_file" : "system/core/libutils/binder/include/utils/String8.h"
  },
  {
   "function_name" : "android::String8::append",
   "linker_set_key" : "_ZN7android7String86appendERKS0_",
   "parameters" :
   [
    {
     "is_this_ptr" : true,
     "referenced_type" : "_ZTIPN7android7String8E#ODR:out/soong/.intermediates/system/core/libutils/binder/libutils_binder/android_vendor_arm64_armv8-a_cortex-a53_static_afdo-libutils/obj/system/core/libutils/binder/RefBase.sdump"
    },
    {
     "referenced_type" : "_ZTIRKN7android7String8E#ODR:out/soong/.intermediates/system/core/libutils/binder/libutils_binder/android_vendor_arm64_armv8-a_cortex-a53_static_afdo-libutils/obj/system/core/libutils/binder/RefBase.sdump"
    }
   ],
   "return_type" : "_ZTIi",
   "source_file" : "system/core/libutils/binder/include/utils/String8.h"
  },
  {
   "function_name" : "android::String8::format",
   "linker_set_key" : "_ZN7android7String86formatEPKcz",
   "parameters" :
   [
    {
     "referenced_type" : "_ZTIPKc"
    }
   ],
   "return_type" : "_ZTIN7android7String8E#ODR:out/soong/.intermediates/system/core/libutils/binder/libutils_binder/android_vendor_arm64_armv8-a_cortex-a53_static_afdo-libutils/obj/system/core/libutils/binder/RefBase.sdump",
   "source_file" : "system/core/libutils/binder/include/utils/String8.h"
  },
  {
   "function_name" : "android::String8::formatV",
   "linker_set_key" : "_ZN7android7String87formatVEPKcSt9__va_list",
   "parameters" :
   [
    {
     "referenced_type" : "_ZTIPKc"
    },
    {
     "referenced_type" : "_ZTISt9__va_list"
    }
   ],
   "return_type" : "_ZTIN7android7String8E#ODR:out/soong/.intermediates/system/core/libutils/binder/libutils_binder/android_vendor_arm64_armv8-a_cortex-a53_static_afdo-libutils/obj/system/core/libutils/binder/RefBase.sdump",
   "source_file" : "system/core/libutils/binder/include/utils/String8.h"
  },
  {
   "function_name" : "android::String8::toLower",
   "linker_set_key" : "_ZN7android7String87toLowerEv",
   "parameters" :
   [
    {
     "is_this_ptr" : true,
     "referenced_type" : "_ZTIPN7android7String8E#ODR:out/soong/.intermediates/system/core/libutils/binder/libutils_binder/android_vendor_arm64_armv8-a_cortex-a53_static_afdo-libutils/obj/system/core/libutils/binder/RefBase.sdump"
    }
   ],
   "return_type" : "_ZTIv",
   "source_file" : "system/core/libutils/binder/include/utils/String8.h"
  },
  {
   "function_name" : "android::String8::removeAll",
   "linker_set_key" : "_ZN7android7String89removeAllEPKc",
   "parameters" :
   [
    {
     "is_this_ptr" : true,
     "referenced_type" : "_ZTIPN7android7String8E#ODR:out/soong/.intermediates/system/core/libutils/binder/libutils_binder/android_vendor_arm64_armv8-a_cortex-a53_static_afdo-libutils/obj/system/core/libutils/binder/RefBase.sdump"
    },
    {
     "referenced_type" : "_ZTIPKc"
    }
   ],
   "return_type" : "_ZTIb",
   "source_file" : "system/core/libutils/binder/include/utils/String8.h"
  },
  {
   "function_name" : "android::String8::String8",
   "linker_set_key" : "_ZN7android7String8C1EPKDi",
   "parameters" :
   [
    {
     "is_this_ptr" : true,
     "referenced_type" : "_ZTIPN7android7String8E#ODR:out/soong/.intermediates/system/core/libutils/binder/libutils_binder/android_vendor_arm64_armv8-a_cortex-a53_static_afdo-libutils/obj/system/core/libutils/binder/RefBase.sdump"
    },
    {
     "referenced_type" : "_ZTIPKDi"
    }
   ],
   "return_type" : "_ZTIv",
   "source_file" : "system/core/libutils/binder/include/utils/String8.h"
  },
  {
   "function_name" : "android::String8::String8",
   "linker_set_key" : "_ZN7android7String8C1EPKDim",
   "parameters" :
   [
    {
     "is_this_ptr" : true,
     "referenced_type" : "_ZTIPN7android7String8E#ODR:out/soong/.intermediates/system/core/libutils/binder/libutils_binder/android_vendor_arm64_armv8-a_cortex-a53_static_afdo-libutils/obj/system/core/libutils/binder/RefBase.sdump"
    },
    {
     "referenced_type" : "_ZTIPKDi"
    },
    {
     "referenced_type" : "_ZTIm"
    }
   ],
   "return_type" : "_ZTIv",
   "source_file" : "system/core/libutils/binder/include/utils/String8.h"
  },
  {
   "function_name" : "android::String8::String8",
   "linker_set_key" : "_ZN7android7String8C1EPKDs",
   "parameters" :
   [
    {
     "is_this_ptr" : true,
     "referenced_type" : "_ZTIPN7android7String8E#ODR:out/soong/.intermediates/system/core/libutils/binder/libutils_binder/android_vendor_arm64_armv8-a_cortex-a53_static_afdo-libutils/obj/system/core/libutils/binder/RefBase.sdump"
    },
    {
     "referenced_type" : "_ZTIPKDs"
    }
   ],
   "return_type" : "_ZTIv",
   "source_file" : "system/core/libutils/binder/include/utils/String8.h"
  },
  {
   "function_name" : "android::String8::String8",
   "linker_set_key" : "_ZN7android7String8C1EPKDsm",
   "parameters" :
   [
    {
     "is_this_ptr" : true,
     "referenced_type" : "_ZTIPN7android7String8E#ODR:out/soong/.intermediates/system/core/libutils/binder/libutils_binder/android_vendor_arm64_armv8-a_cortex-a53_static_afdo-libutils/obj/system/core/libutils/binder/RefBase.sdump"
    },
    {
     "referenced_type" : "_ZTIPKDs"
    },
    {
     "referenced_type" : "_ZTIm"
    }
   ],
   "return_type" : "_ZTIv",
   "source_file" : "system/core/libutils/binder/include/utils/String8.h"
  },
  {
   "function_name" : "android::String8::String8",
   "linker_set_key" : "_ZN7android7String8C1EPKc",
   "parameters" :
   [
    {
     "is_this_ptr" : true,
     "referenced_type" : "_ZTIPN7android7String8E#ODR:out/soong/.intermediates/system/core/libutils/binder/libutils_binder/android_vendor_arm64_armv8-a_cortex-a53_static_afdo-libutils/obj/system/core/libutils/binder/RefBase.sdump"
    },
    {
     "referenced_type" : "_ZTIPKc"
    }
   ],
   "return_type" : "_ZTIv",
   "source_file" : "system/core/libutils/binder/include/utils/String8.h"
  },
  {
   "function_name" : "android::String8::String8",
   "linker_set_key" : "_ZN7android7String8C1EPKcm",
   "parameters" :
   [
    {
     "is_this_ptr" : true,
     "referenced_type" : "_ZTIPN7android7String8E#ODR:out/soong/.intermediates/system/core/libutils/binder/libutils_binder/android_vendor_arm64_armv8-a_cortex-a53_static_afdo-libutils/obj/system/core/libutils/binder/RefBase.sdump"
    },
    {
     "referenced_type" : "_ZTIPKc"
    },
    {
     "referenced_type" : "_ZTIm"
    }
   ],
   "return_type" : "_ZTIv",
   "source_file" : "system/core/libutils/binder/include/utils/String8.h"
  },
  {
   "function_name" : "android::String8::String8",
   "linker_set_key" : "_ZN7android7String8C1ERKNS_8String16E",
   "parameters" :
   [
    {
     "is_this_ptr" : true,
     "referenced_type" : "_ZTIPN7android7String8E#ODR:out/soong/.intermediates/system/core/libutils/binder/libutils_binder/android_vendor_arm64_armv8-a_cortex-a53_static_afdo-libutils/obj/system/core/libutils/binder/RefBase.sdump"
    },
    {
     "referenced_type" : "_ZTIRKN7android8String16E"
    }
   ],
   "return_type" : "_ZTIv",
   "source_file" : "system/core/libutils/binder/include/utils/String8.h"
  },
  {
   "function_name" : "android::String8::String8",
   "linker_set_key" : "_ZN7android7String8C1ERKS0_",
   "parameters" :
   [
    {
     "is_this_ptr" : true,
     "referenced_type" : "_ZTIPN7android7String8E#ODR:out/soong/.intermediates/system/core/libutils/binder/libutils_binder/android_vendor_arm64_armv8-a_cortex-a53_static_afdo-libutils/obj/system/core/libutils/binder/RefBase.sdump"
    },
    {
     "referenced_type" : "_ZTIRKN7android7String8E#ODR:out/soong/.intermediates/system/core/libutils/binder/libutils_binder/android_vendor_arm64_armv8-a_cortex-a53_static_afdo-libutils/obj/system/core/libutils/binder/RefBase.sdump"
    }
   ],
   "return_type" : "_ZTIv",
   "source_file" : "system/core/libutils/binder/include/utils/String8.h"
  },
  {
   "function_name" : "android::String8::String8",
   "linker_set_key" : "_ZN7android7String8C1Ev",
   "parameters" :
   [
    {
     "is_this_ptr" : true,
     "referenced_type" : "_ZTIPN7android7String8E#ODR:out/soong/.intermediates/system/core/libutils/binder/libutils_binder/android_vendor_arm64_armv8-a_cortex-a53_static_afdo-libutils/obj/system/core/libutils/binder/RefBase.sdump"
    }
   ],
   "return_type" : "_ZTIv",
   "source_file" : "system/core/libutils/binder/include/utils/String8.h"
  },
  {
   "function_name" : "android::String8::String8",
   "linker_set_key" : "_ZN7android7String8C2EPKDi",
   "parameters" :
   [
    {
     "is_this_ptr" : true,
     "referenced_type" : "_ZTIPN7android7String8E#ODR:out/soong/.intermediates/system/core/libutils/binder/libutils_binder/android_vendor_arm64_armv8-a_cortex-a53_static_afdo-libutils/obj/system/core/libutils/binder/RefBase.sdump"
    },
    {
     "referenced_type" : "_ZTIPKDi"
    }
   ],
   "return_type" : "_ZTIv",
   "source_file" : "system/core/libutils/binder/include/utils/String8.h"
  },
  {
   "function_name" : "android::String8::String8",
   "linker_set_key" : "_ZN7android7String8C2EPKDim",
   "parameters" :
   [
    {
     "is_this_ptr" : true,
     "referenced_type" : "_ZTIPN7android7String8E#ODR:out/soong/.intermediates/system/core/libutils/binder/libutils_binder/android_vendor_arm64_armv8-a_cortex-a53_static_afdo-libutils/obj/system/core/libutils/binder/RefBase.sdump"
    },
    {
     "referenced_type" : "_ZTIPKDi"
    },
    {
     "referenced_type" : "_ZTIm"
    }
   ],
   "return_type" : "_ZTIv",
   "source_file" : "system/core/libutils/binder/include/utils/String8.h"
  },
  {
   "function_name" : "android::String8::String8",
   "linker_set_key" : "_ZN7android7String8C2EPKDs",
   "parameters" :
   [
    {
     "is_this_ptr" : true,
     "referenced_type" : "_ZTIPN7android7String8E#ODR:out/soong/.intermediates/system/core/libutils/binder/libutils_binder/android_vendor_arm64_armv8-a_cortex-a53_static_afdo-libutils/obj/system/core/libutils/binder/RefBase.sdump"
    },
    {
     "referenced_type" : "_ZTIPKDs"
    }
   ],
   "return_type" : "_ZTIv",
   "source_file" : "system/core/libutils/binder/include/utils/String8.h"
  },
  {
   "function_name" : "android::String8::String8",
   "linker_set_key" : "_ZN7android7String8C2EPKDsm",
   "parameters" :
   [
    {
     "is_this_ptr" : true,
     "referenced_type" : "_ZTIPN7android7String8E#ODR:out/soong/.intermediates/system/core/libutils/binder/libutils_binder/android_vendor_arm64_armv8-a_cortex-a53_static_afdo-libutils/obj/system/core/libutils/binder/RefBase.sdump"
    },
    {
     "referenced_type" : "_ZTIPKDs"
    },
    {
     "referenced_type" : "_ZTIm"
    }
   ],
   "return_type" : "_ZTIv",
   "source_file" : "system/core/libutils/binder/include/utils/String8.h"
  },
  {
   "function_name" : "android::String8::String8",
   "linker_set_key" : "_ZN7android7String8C2EPKc",
   "parameters" :
   [
    {
     "is_this_ptr" : true,
     "referenced_type" : "_ZTIPN7android7String8E#ODR:out/soong/.intermediates/system/core/libutils/binder/libutils_binder/android_vendor_arm64_armv8-a_cortex-a53_static_afdo-libutils/obj/system/core/libutils/binder/RefBase.sdump"
    },
    {
     "referenced_type" : "_ZTIPKc"
    }
   ],
   "return_type" : "_ZTIv",
   "source_file" : "system/core/libutils/binder/include/utils/String8.h"
  },
  {
   "function_name" : "android::String8::String8",
   "linker_set_key" : "_ZN7android7String8C2EPKcm",
   "parameters" :
   [
    {
     "is_this_ptr" : true,
     "referenced_type" : "_ZTIPN7android7String8E#ODR:out/soong/.intermediates/system/core/libutils/binder/libutils_binder/android_vendor_arm64_armv8-a_cortex-a53_static_afdo-libutils/obj/system/core/libutils/binder/RefBase.sdump"
    },
    {
     "referenced_type" : "_ZTIPKc"
    },
    {
     "referenced_type" : "_ZTIm"
    }
   ],
   "return_type" : "_ZTIv",
   "source_file" : "system/core/libutils/binder/include/utils/String8.h"
  },
  {
   "function_name" : "android::String8::String8",
   "linker_set_key" : "_ZN7android7String8C2ERKNS_8String16E",
   "parameters" :
   [
    {
     "is_this_ptr" : true,
     "referenced_type" : "_ZTIPN7android7String8E#ODR:out/soong/.intermediates/system/core/libutils/binder/libutils_binder/android_vendor_arm64_armv8-a_cortex-a53_static_afdo-libutils/obj/system/core/libutils/binder/RefBase.sdump"
    },
    {
     "referenced_type" : "_ZTIRKN7android8String16E"
    }
   ],
   "return_type" : "_ZTIv",
   "source_file" : "system/core/libutils/binder/include/utils/String8.h"
  },
  {
   "function_name" : "android::String8::String8",
   "linker_set_key" : "_ZN7android7String8C2ERKS0_",
   "parameters" :
   [
    {
     "is_this_ptr" : true,
     "referenced_type" : "_ZTIPN7android7String8E#ODR:out/soong/.intermediates/system/core/libutils/binder/libutils_binder/android_vendor_arm64_armv8-a_cortex-a53_static_afdo-libutils/obj/system/core/libutils/binder/RefBase.sdump"
    },
    {
     "referenced_type" : "_ZTIRKN7android7String8E#ODR:out/soong/.intermediates/system/core/libutils/binder/libutils_binder/android_vendor_arm64_armv8-a_cortex-a53_static_afdo-libutils/obj/system/core/libutils/binder/RefBase.sdump"
    }
   ],
   "return_type" : "_ZTIv",
   "source_file" : "system/core/libutils/binder/include/utils/String8.h"
  },
  {
   "function_name" : "android::String8::String8",
   "linker_set_key" : "_ZN7android7String8C2Ev",
   "parameters" :
   [
    {
     "is_this_ptr" : true,
     "referenced_type" : "_ZTIPN7android7String8E#ODR:out/soong/.intermediates/system/core/libutils/binder/libutils_binder/android_vendor_arm64_armv8-a_cortex-a53_static_afdo-libutils/obj/system/core/libutils/binder/RefBase.sdump"
    }
   ],
   "return_type" : "_ZTIv",
   "source_file" : "system/core/libutils/binder/include/utils/String8.h"
  },
  {
   "function_name" : "android::String8::~String8",
   "linker_set_key" : "_ZN7android7String8D1Ev",
   "parameters" :
   [
    {
     "is_this_ptr" : true,
     "referenced_type" : "_ZTIPN7android7String8E#ODR:out/soong/.intermediates/system/core/libutils/binder/libutils_binder/android_vendor_arm64_armv8-a_cortex-a53_static_afdo-libutils/obj/system/core/libutils/binder/RefBase.sdump"
    }
   ],
   "return_type" : "_ZTIv",
   "source_file" : "system/core/libutils/binder/include/utils/String8.h"
  },
  {
   "function_name" : "android::String8::~String8",
   "linker_set_key" : "_ZN7android7String8D2Ev",
   "parameters" :
   [
    {
     "is_this_ptr" : true,
     "referenced_type" : "_ZTIPN7android7String8E#ODR:out/soong/.intermediates/system/core/libutils/binder/libutils_binder/android_vendor_arm64_armv8-a_cortex-a53_static_afdo-libutils/obj/system/core/libutils/binder/RefBase.sdump"
    }
   ],
   "return_type" : "_ZTIv",
   "source_file" : "system/core/libutils/binder/include/utils/String8.h"
  },
  {
   "access" : "private",
   "function_name" : "android::String16::editResize",
   "linker_set_key" : "_ZN7android8String1610editResizeEm",
   "parameters" :
   [
    {
     "is_this_ptr" : true,
     "referenced_type" : "_ZTIPN7android8String16E"
    },
    {
     "referenced_type" : "_ZTIm"
    }
   ],
   "return_type" : "_ZTIPv",
   "source_file" : "system/core/libutils/binder/include/utils/String16.h"
  },
  {
   "function_name" : "android::String16::replaceAll",
   "linker_set_key" : "_ZN7android8String1610replaceAllEDsDs",
   "parameters" :
   [
    {
     "is_this_ptr" : true,
     "referenced_type" : "_ZTIPN7android8String16E"
    },
    {
     "referenced_type" : "_ZTIDs"
    },
    {
     "referenced_type" : "_ZTIDs"
    }
   ],
   "return_type" : "_ZTIi",
   "source_file" : "system/core/libutils/binder/include/utils/String16.h"
  },
  {
   "access" : "private",
   "function_name" : "android::String16::allocFromUTF8",
   "linker_set_key" : "_ZN7android8String1613allocFromUTF8EPKcm",
   "parameters" :
   [
    {
     "referenced_type" : "_ZTIPKc"
    },
    {
     "referenced_type" : "_ZTIm"
    }
   ],
   "return_type" : "_ZTIPDs",
   "source_file" : "system/core/libutils/binder/include/utils/String16.h"
  },
  {
   "access" : "private",
   "function_name" : "android::String16::allocFromUTF16",
   "linker_set_key" : "_ZN7android8String1614allocFromUTF16EPKDsm",
   "parameters" :
   [
    {
     "referenced_type" : "_ZTIPKDs"
    },
    {
     "referenced_type" : "_ZTIm"
    }
   ],
   "return_type" : "_ZTIPDs",
   "source_file" : "system/core/libutils/binder/include/utils/String16.h"
  },
  {
   "access" : "private",
   "function_name" : "android::String16::edit",
   "linker_set_key" : "_ZN7android8String164editEv",
   "parameters" :
   [
    {
     "is_this_ptr" : true,
     "referenced_type" : "_ZTIPN7android8String16E"
    }
   ],
   "return_type" : "_ZTIPv",
   "source_file" : "system/core/libutils/binder/include/utils/String16.h"
  },
  {
   "access" : "private",
   "function_name" : "android::String16::alloc",
   "linker_set_key" : "_ZN7android8String165allocEm",
   "parameters" :
   [
    {
     "referenced_type" : "_ZTIm"
    }
   ],
   "return_type" : "_ZTIPv",
   "source_file" : "system/core/libutils/binder/include/utils/String16.h"
  },
  {
   "function_name" : "android::String16::setTo",
   "linker_set_key" : "_ZN7android8String165setToEPKDs",
   "parameters" :
   [
    {
     "is_this_ptr" : true,
     "referenced_type" : "_ZTIPN7android8String16E"
    },
    {
     "referenced_type" : "_ZTIPKDs"
    }
   ],
   "return_type" : "_ZTIi",
   "source_file" : "system/core/libutils/binder/include/utils/String16.h"
  },
  {
   "function_name" : "android::String16::setTo",
   "linker_set_key" : "_ZN7android8String165setToEPKDsm",
   "parameters" :
   [
    {
     "is_this_ptr" : true,
     "referenced_type" : "_ZTIPN7android8String16E"
    },
    {
     "referenced_type" : "_ZTIPKDs"
    },
    {
     "referenced_type" : "_ZTIm"
    }
   ],
   "return_type" : "_ZTIi",
   "source_file" : "system/core/libutils/binder/include/utils/String16.h"
  },
  {
   "function_name" : "android::String16::setTo",
   "linker_set_key" : "_ZN7android8String165setToERKS0_",
   "parameters" :
   [
    {
     "is_this_ptr" : true,
     "referenced_type" : "_ZTIPN7android8String16E"
    },
    {
     "referenced_type" : "_ZTIRKN7android8String16E"
    }
   ],
   "return_type" : "_ZTIv",
   "source_file" : "system/core/libutils/binder/include/utils/String16.h"
  },
  {
   "function_name" : "android::String16::setTo",
   "linker_set_key" : "_ZN7android8String165setToERKS0_mm",
   "parameters" :
   [
    {
     "is_this_ptr" : true,
     "referenced_type" : "_ZTIPN7android8String16E"
    },
    {
     "referenced_type" : "_ZTIRKN7android8String16E"
    },
    {
     "referenced_type" : "_ZTIm"
    },
    {
     "default_arg" : true,
     "referenced_type" : "_ZTIm"
    }
   ],
   "return_type" : "_ZTIi",
   "source_file" : "system/core/libutils/binder/include/utils/String16.h"
  },
  {
   "function_name" : "android::String16::append",
   "linker_set_key" : "_ZN7android8String166appendEPKDsm",
   "parameters" :
   [
    {
     "is_this_ptr" : true,
     "referenced_type" : "_ZTIPN7android8String16E"
    },
    {
     "referenced_type" : "_ZTIPKDs"
    },
    {
     "referenced_type" : "_ZTIm"
    }
   ],
   "return_type" : "_ZTIi",
   "source_file" : "system/core/libutils/binder/include/utils/String16.h"
  },
  {
   "function_name" : "android::String16::append",
   "linker_set_key" : "_ZN7android8String166appendERKS0_",
   "parameters" :
   [
    {
     "is_this_ptr" : true,
     "referenced_type" : "_ZTIPN7android8String16E"
    },
    {
     "referenced_type" : "_ZTIRKN7android8String16E"
    }
   ],
   "return_type" : "_ZTIi",
   "source_file" : "system/core/libutils/binder/include/utils/String16.h"
  },
  {
   "function_name" : "android::String16::insert",
   "linker_set_key" : "_ZN7android8String166insertEmPKDs",
   "parameters" :
   [
    {
     "is_this_ptr" : true,
     "referenced_type" : "_ZTIPN7android8String16E"
    },
    {
     "referenced_type" : "_ZTIm"
    },
    {
     "referenced_type" : "_ZTIPKDs"
    }
   ],
   "return_type" : "_ZTIi",
   "source_file" : "system/core/libutils/binder/include/utils/String16.h"
  },
  {
   "function_name" : "android::String16::insert",
   "linker_set_key" : "_ZN7android8String166insertEmPKDsm",
   "parameters" :
   [
    {
     "is_this_ptr" : true,
     "referenced_type" : "_ZTIPN7android8String16E"
    },
    {
     "referenced_type" : "_ZTIm"
    },
    {
     "referenced_type" : "_ZTIPKDs"
    },
    {
     "referenced_type" : "_ZTIm"
    }
   ],
   "return_type" : "_ZTIi",
   "source_file" : "system/core/libutils/binder/include/utils/String16.h"
  },
  {
   "access" : "private",
   "function_name" : "android::String16::acquire",
   "linker_set_key" : "_ZN7android8String167acquireEv",
   "parameters" :
   [
    {
     "is_this_ptr" : true,
     "referenced_type" : "_ZTIPN7android8String16E"
    }
   ],
   "return_type" : "_ZTIv",
   "source_file" : "system/core/libutils/binder/include/utils/String16.h"
  },
  {
   "access" : "private",
   "function_name" : "android::String16::release",
   "linker_set_key" : "_ZN7android8String167releaseEv",
   "parameters" :
   [
    {
     "is_this_ptr" : true,
     "referenced_type" : "_ZTIPN7android8String16E"
    }
   ],
   "return_type" : "_ZTIv",
   "source_file" : "system/core/libutils/binder/include/utils/String16.h"
  },
  {
   "function_name" : "android::String16::String16",
   "linker_set_key" : "_ZN7android8String16C1EOS0_",
   "parameters" :
   [
    {
     "is_this_ptr" : true,
     "referenced_type" : "_ZTIPN7android8String16E"
    },
    {
     "referenced_type" : "_ZTION7android8String16E"
    }
   ],
   "return_type" : "_ZTIv",
   "source_file" : "system/core/libutils/binder/include/utils/String16.h"
  },
  {
   "function_name" : "android::String16::String16",
   "linker_set_key" : "_ZN7android8String16C1EPKDs",
   "parameters" :
   [
    {
     "is_this_ptr" : true,
     "referenced_type" : "_ZTIPN7android8String16E"
    },
    {
     "referenced_type" : "_ZTIPKDs"
    }
   ],
   "return_type" : "_ZTIv",
   "source_file" : "system/core/libutils/binder/include/utils/String16.h"
  },
  {
   "function_name" : "android::String16::String16",
   "linker_set_key" : "_ZN7android8String16C1EPKDsm",
   "parameters" :
   [
    {
     "is_this_ptr" : true,
     "referenced_type" : "_ZTIPN7android8String16E"
    },
    {
     "referenced_type" : "_ZTIPKDs"
    },
    {
     "referenced_type" : "_ZTIm"
    }
   ],
   "return_type" : "_ZTIv",
   "source_file" : "system/core/libutils/binder/include/utils/String16.h"
  },
  {
   "function_name" : "android::String16::String16",
   "linker_set_key" : "_ZN7android8String16C1EPKc",
   "parameters" :
   [
    {
     "is_this_ptr" : true,
     "referenced_type" : "_ZTIPN7android8String16E"
    },
    {
     "referenced_type" : "_ZTIPKc"
    }
   ],
   "return_type" : "_ZTIv",
   "source_file" : "system/core/libutils/binder/include/utils/String16.h"
  },
  {
   "function_name" : "android::String16::String16",
   "linker_set_key" : "_ZN7android8String16C1EPKcm",
   "parameters" :
   [
    {
     "is_this_ptr" : true,
     "referenced_type" : "_ZTIPN7android8String16E"
    },
    {
     "referenced_type" : "_ZTIPKc"
    },
    {
     "referenced_type" : "_ZTIm"
    }
   ],
   "return_type" : "_ZTIv",
   "source_file" : "system/core/libutils/binder/include/utils/String16.h"
  },
  {
   "function_name" : "android::String16::String16",
   "linker_set_key" : "_ZN7android8String16C1ERKNS_7String8E",
   "parameters" :
   [
    {
     "is_this_ptr" : true,
     "referenced_type" : "_ZTIPN7android8String16E"
    },
    {
     "referenced_type" : "_ZTIRKN7android7String8E#ODR:out/soong/.intermediates/system/core/libutils/binder/libutils_binder/android_vendor_arm64_armv8-a_cortex-a53_static_afdo-libutils/obj/system/core/libutils/binder/RefBase.sdump"
    }
   ],
   "return_type" : "_ZTIv",
   "source_file" : "system/core/libutils/binder/include/utils/String16.h"
  },
  {
   "function_name" : "android::String16::String16",
   "linker_set_key" : "_ZN7android8String16C1ERKS0_",
   "parameters" :
   [
    {
     "is_this_ptr" : true,
     "referenced_type" : "_ZTIPN7android8String16E"
    },
    {
     "referenced_type" : "_ZTIRKN7android8String16E"
    }
   ],
   "return_type" : "_ZTIv",
   "source_file" : "system/core/libutils/binder/include/utils/String16.h"
  },
  {
   "function_name" : "android::String16::String16",
   "linker_set_key" : "_ZN7android8String16C1ERKS0_mm",
   "parameters" :
   [
    {
     "is_this_ptr" : true,
     "referenced_type" : "_ZTIPN7android8String16E"
    },
    {
     "referenced_type" : "_ZTIRKN7android8String16E"
    },
    {
     "referenced_type" : "_ZTIm"
    },
    {
     "default_arg" : true,
     "referenced_type" : "_ZTIm"
    }
   ],
   "return_type" : "_ZTIv",
   "source_file" : "system/core/libutils/binder/include/utils/String16.h"
  },
  {
   "function_name" : "android::String16::String16",
   "linker_set_key" : "_ZN7android8String16C1Ev",
   "parameters" :
   [
    {
     "is_this_ptr" : true,
     "referenced_type" : "_ZTIPN7android8String16E"
    }
   ],
   "return_type" : "_ZTIv",
   "source_file" : "system/core/libutils/binder/include/utils/String16.h"
  },
  {
   "function_name" : "android::String16::String16",
   "linker_set_key" : "_ZN7android8String16C2EOS0_",
   "parameters" :
   [
    {
     "is_this_ptr" : true,
     "referenced_type" : "_ZTIPN7android8String16E"
    },
    {
     "referenced_type" : "_ZTION7android8String16E"
    }
   ],
   "return_type" : "_ZTIv",
   "source_file" : "system/core/libutils/binder/include/utils/String16.h"
  },
  {
   "function_name" : "android::String16::String16",
   "linker_set_key" : "_ZN7android8String16C2EPKDs",
   "parameters" :
   [
    {
     "is_this_ptr" : true,
     "referenced_type" : "_ZTIPN7android8String16E"
    },
    {
     "referenced_type" : "_ZTIPKDs"
    }
   ],
   "return_type" : "_ZTIv",
   "source_file" : "system/core/libutils/binder/include/utils/String16.h"
  },
  {
   "function_name" : "android::String16::String16",
   "linker_set_key" : "_ZN7android8String16C2EPKDsm",
   "parameters" :
   [
    {
     "is_this_ptr" : true,
     "referenced_type" : "_ZTIPN7android8String16E"
    },
    {
     "referenced_type" : "_ZTIPKDs"
    },
    {
     "referenced_type" : "_ZTIm"
    }
   ],
   "return_type" : "_ZTIv",
   "source_file" : "system/core/libutils/binder/include/utils/String16.h"
  },
  {
   "function_name" : "android::String16::String16",
   "linker_set_key" : "_ZN7android8String16C2EPKc",
   "parameters" :
   [
    {
     "is_this_ptr" : true,
     "referenced_type" : "_ZTIPN7android8String16E"
    },
    {
     "referenced_type" : "_ZTIPKc"
    }
   ],
   "return_type" : "_ZTIv",
   "source_file" : "system/core/libutils/binder/include/utils/String16.h"
  },
  {
   "function_name" : "android::String16::String16",
   "linker_set_key" : "_ZN7android8String16C2EPKcm",
   "parameters" :
   [
    {
     "is_this_ptr" : true,
     "referenced_type" : "_ZTIPN7android8String16E"
    },
    {
     "referenced_type" : "_ZTIPKc"
    },
    {
     "referenced_type" : "_ZTIm"
    }
   ],
   "return_type" : "_ZTIv",
   "source_file" : "system/core/libutils/binder/include/utils/String16.h"
  },
  {
   "function_name" : "android::String16::String16",
   "linker_set_key" : "_ZN7android8String16C2ERKNS_7String8E",
   "parameters" :
   [
    {
     "is_this_ptr" : true,
     "referenced_type" : "_ZTIPN7android8String16E"
    },
    {
     "referenced_type" : "_ZTIRKN7android7String8E#ODR:out/soong/.intermediates/system/core/libutils/binder/libutils_binder/android_vendor_arm64_armv8-a_cortex-a53_static_afdo-libutils/obj/system/core/libutils/binder/RefBase.sdump"
    }
   ],
   "return_type" : "_ZTIv",
   "source_file" : "system/core/libutils/binder/include/utils/String16.h"
  },
  {
   "function_name" : "android::String16::String16",
   "linker_set_key" : "_ZN7android8String16C2ERKS0_",
   "parameters" :
   [
    {
     "is_this_ptr" : true,
     "referenced_type" : "_ZTIPN7android8String16E"
    },
    {
     "referenced_type" : "_ZTIRKN7android8String16E"
    }
   ],
   "return_type" : "_ZTIv",
   "source_file" : "system/core/libutils/binder/include/utils/String16.h"
  },
  {
   "function_name" : "android::String16::String16",
   "linker_set_key" : "_ZN7android8String16C2ERKS0_mm",
   "parameters" :
   [
    {
     "is_this_ptr" : true,
     "referenced_type" : "_ZTIPN7android8String16E"
    },
    {
     "referenced_type" : "_ZTIRKN7android8String16E"
    },
    {
     "referenced_type" : "_ZTIm"
    },
    {
     "default_arg" : true,
     "referenced_type" : "_ZTIm"
    }
   ],
   "return_type" : "_ZTIv",
   "source_file" : "system/core/libutils/binder/include/utils/String16.h"
  },
  {
   "function_name" : "android::String16::String16",
   "linker_set_key" : "_ZN7android8String16C2Ev",
   "parameters" :
   [
    {
     "is_this_ptr" : true,
     "referenced_type" : "_ZTIPN7android8String16E"
    }
   ],
   "return_type" : "_ZTIv",
   "source_file" : "system/core/libutils/binder/include/utils/String16.h"
  },
  {
   "function_name" : "android::String16::~String16",
   "linker_set_key" : "_ZN7android8String16D1Ev",
   "parameters" :
   [
    {
     "is_this_ptr" : true,
     "referenced_type" : "_ZTIPN7android8String16E"
    }
   ],
   "return_type" : "_ZTIv",
   "source_file" : "system/core/libutils/binder/include/utils/String16.h"
  },
  {
   "function_name" : "android::String16::~String16",
   "linker_set_key" : "_ZN7android8String16D2Ev",
   "parameters" :
   [
    {
     "is_this_ptr" : true,
     "referenced_type" : "_ZTIPN7android8String16E"
    }
   ],
   "return_type" : "_ZTIv",
   "source_file" : "system/core/libutils/binder/include/utils/String16.h"
  },
  {
   "function_name" : "android::String16::operator=",
   "linker_set_key" : "_ZN7android8String16aSEOS0_",
   "parameters" :
   [
    {
     "is_this_ptr" : true,
     "referenced_type" : "_ZTIPN7android8String16E"
    },
    {
     "referenced_type" : "_ZTION7android8String16E"
    }
   ],
   "return_type" : "_ZTIRN7android8String16E",
   "source_file" : "system/core/libutils/binder/include/utils/String16.h"
  },
  {
   "function_name" : "android::FdPrinter::printLine",
   "linker_set_key" : "_ZN7android9FdPrinter9printLineEPKc",
   "parameters" :
   [
    {
     "is_this_ptr" : true,
     "referenced_type" : "_ZTIPN7android9FdPrinterE"
    },
    {
     "referenced_type" : "_ZTIPKc"
    }
   ],
   "return_type" : "_ZTIv",
   "source_file" : "system/core/libutils/include/utils/Printer.h"
  },
  {
   "function_name" : "android::FdPrinter::FdPrinter",
   "linker_set_key" : "_ZN7android9FdPrinterC1EijPKc",
   "parameters" :
   [
    {
     "is_this_ptr" : true,
     "referenced_type" : "_ZTIPN7android9FdPrinterE"
    },
    {
     "referenced_type" : "_ZTIi"
    },
    {
     "default_arg" : true,
     "referenced_type" : "_ZTIj"
    },
    {
     "default_arg" : true,
     "referenced_type" : "_ZTIPKc"
    }
   ],
   "return_type" : "_ZTIv",
   "source_file" : "system/core/libutils/include/utils/Printer.h"
  },
  {
   "function_name" : "android::FdPrinter::FdPrinter",
   "linker_set_key" : "_ZN7android9FdPrinterC2EijPKc",
   "parameters" :
   [
    {
     "is_this_ptr" : true,
     "referenced_type" : "_ZTIPN7android9FdPrinterE"
    },
    {
     "referenced_type" : "_ZTIi"
    },
    {
     "default_arg" : true,
     "referenced_type" : "_ZTIj"
    },
    {
     "default_arg" : true,
     "referenced_type" : "_ZTIPKc"
    }
   ],
   "return_type" : "_ZTIv",
   "source_file" : "system/core/libutils/include/utils/Printer.h"
  },
  {
   "function_name" : "android::StopWatch::reset",
   "linker_set_key" : "_ZN7android9StopWatch5resetEv",
   "parameters" :
   [
    {
     "is_this_ptr" : true,
     "referenced_type" : "_ZTIPN7android9StopWatchE"
    }
   ],
   "return_type" : "_ZTIv",
   "source_file" : "system/core/libutils/include/utils/StopWatch.h"
  },
  {
   "function_name" : "android::StopWatch::StopWatch",
   "linker_set_key" : "_ZN7android9StopWatchC1EPKci",
   "parameters" :
   [
    {
     "is_this_ptr" : true,
     "referenced_type" : "_ZTIPN7android9StopWatchE"
    },
    {
     "referenced_type" : "_ZTIPKc"
    },
    {
     "default_arg" : true,
     "referenced_type" : "_ZTIi"
    }
   ],
   "return_type" : "_ZTIv",
   "source_file" : "system/core/libutils/include/utils/StopWatch.h"
  },
  {
   "function_name" : "android::StopWatch::StopWatch",
   "linker_set_key" : "_ZN7android9StopWatchC2EPKci",
   "parameters" :
   [
    {
     "is_this_ptr" : true,
     "referenced_type" : "_ZTIPN7android9StopWatchE"
    },
    {
     "referenced_type" : "_ZTIPKc"
    },
    {
     "default_arg" : true,
     "referenced_type" : "_ZTIi"
    }
   ],
   "return_type" : "_ZTIv",
   "source_file" : "system/core/libutils/include/utils/StopWatch.h"
  },
  {
   "function_name" : "android::StopWatch::~StopWatch",
   "linker_set_key" : "_ZN7android9StopWatchD1Ev",
   "parameters" :
   [
    {
     "is_this_ptr" : true,
     "referenced_type" : "_ZTIPN7android9StopWatchE"
    }
   ],
   "return_type" : "_ZTIv",
   "source_file" : "system/core/libutils/include/utils/StopWatch.h"
  },
  {
   "function_name" : "android::StopWatch::~StopWatch",
   "linker_set_key" : "_ZN7android9StopWatchD2Ev",
   "parameters" :
   [
    {
     "is_this_ptr" : true,
     "referenced_type" : "_ZTIPN7android9StopWatchE"
    }
   ],
   "return_type" : "_ZTIv",
   "source_file" : "system/core/libutils/include/utils/StopWatch.h"
  },
  {
   "function_name" : "android::Tokenizer::fromContents",
   "linker_set_key" : "_ZN7android9Tokenizer12fromContentsERKNS_7String8EPKcPPS0_",
   "parameters" :
   [
    {
     "referenced_type" : "_ZTIRKN7android7String8E"
    },
    {
     "referenced_type" : "_ZTIPKc"
    },
    {
     "referenced_type" : "_ZTIPPN7android9TokenizerE"
    }
   ],
   "return_type" : "_ZTIi",
   "source_file" : "system/core/libutils/include/utils/Tokenizer.h"
  },
  {
   "function_name" : "android::Tokenizer::skipDelimiters",
   "linker_set_key" : "_ZN7android9Tokenizer14skipDelimitersEPKc",
   "parameters" :
   [
    {
     "is_this_ptr" : true,
     "referenced_type" : "_ZTIPN7android9TokenizerE"
    },
    {
     "referenced_type" : "_ZTIPKc"
    }
   ],
   "return_type" : "_ZTIv",
   "source_file" : "system/core/libutils/include/utils/Tokenizer.h"
  },
  {
   "function_name" : "android::Tokenizer::open",
   "linker_set_key" : "_ZN7android9Tokenizer4openERKNS_7String8EPPS0_",
   "parameters" :
   [
    {
     "referenced_type" : "_ZTIRKN7android7String8E"
    },
    {
     "referenced_type" : "_ZTIPPN7android9TokenizerE"
    }
   ],
   "return_type" : "_ZTIi",
   "source_file" : "system/core/libutils/include/utils/Tokenizer.h"
  },
  {
   "function_name" : "android::Tokenizer::nextLine",
   "linker_set_key" : "_ZN7android9Tokenizer8nextLineEv",
   "parameters" :
   [
    {
     "is_this_ptr" : true,
     "referenced_type" : "_ZTIPN7android9TokenizerE"
    }
   ],
   "return_type" : "_ZTIv",
   "source_file" : "system/core/libutils/include/utils/Tokenizer.h"
  },
  {
   "function_name" : "android::Tokenizer::nextToken",
   "linker_set_key" : "_ZN7android9Tokenizer9nextTokenEPKc",
   "parameters" :
   [
    {
     "is_this_ptr" : true,
     "referenced_type" : "_ZTIPN7android9TokenizerE"
    },
    {
     "referenced_type" : "_ZTIPKc"
    }
   ],
   "return_type" : "_ZTIN7android7String8E",
   "source_file" : "system/core/libutils/include/utils/Tokenizer.h"
  },
  {
   "access" : "private",
   "function_name" : "android::Tokenizer::Tokenizer",
   "linker_set_key" : "_ZN7android9TokenizerC1ERKNS_7String8EPNS_7FileMapEPcbm",
   "parameters" :
   [
    {
     "is_this_ptr" : true,
     "referenced_type" : "_ZTIPN7android9TokenizerE"
    },
    {
     "referenced_type" : "_ZTIRKN7android7String8E"
    },
    {
     "referenced_type" : "_ZTIPN7android7FileMapE"
    },
    {
     "referenced_type" : "_ZTIPc"
    },
    {
     "referenced_type" : "_ZTIb"
    },
    {
     "referenced_type" : "_ZTIm"
    }
   ],
   "return_type" : "_ZTIv",
   "source_file" : "system/core/libutils/include/utils/Tokenizer.h"
  },
  {
   "access" : "private",
   "function_name" : "android::Tokenizer::Tokenizer",
   "linker_set_key" : "_ZN7android9TokenizerC2ERKNS_7String8EPNS_7FileMapEPcbm",
   "parameters" :
   [
    {
     "is_this_ptr" : true,
     "referenced_type" : "_ZTIPN7android9TokenizerE"
    },
    {
     "referenced_type" : "_ZTIRKN7android7String8E"
    },
    {
     "referenced_type" : "_ZTIPN7android7FileMapE"
    },
    {
     "referenced_type" : "_ZTIPc"
    },
    {
     "referenced_type" : "_ZTIb"
    },
    {
     "referenced_type" : "_ZTIm"
    }
   ],
   "return_type" : "_ZTIv",
   "source_file" : "system/core/libutils/include/utils/Tokenizer.h"
  },
  {
   "function_name" : "android::Tokenizer::~Tokenizer",
   "linker_set_key" : "_ZN7android9TokenizerD1Ev",
   "parameters" :
   [
    {
     "is_this_ptr" : true,
     "referenced_type" : "_ZTIPN7android9TokenizerE"
    }
   ],
   "return_type" : "_ZTIv",
   "source_file" : "system/core/libutils/include/utils/Tokenizer.h"
  },
  {
   "function_name" : "android::Tokenizer::~Tokenizer",
   "linker_set_key" : "_ZN7android9TokenizerD2Ev",
   "parameters" :
   [
    {
     "is_this_ptr" : true,
     "referenced_type" : "_ZTIPN7android9TokenizerE"
    }
   ],
   "return_type" : "_ZTIv",
   "source_file" : "system/core/libutils/include/utils/Tokenizer.h"
  },
  {
   "function_name" : "android::VectorImpl::itemLocation",
   "linker_set_key" : "_ZNK7android10VectorImpl12itemLocationEm",
   "parameters" :
   [
    {
     "is_this_ptr" : true,
     "referenced_type" : "_ZTIPKN7android10VectorImplE#ODR:out/soong/.intermediates/system/core/libutils/binder/libutils_binder/android_vendor_arm64_armv8-a_cortex-a53_static_afdo-libutils/obj/system/core/libutils/binder/RefBase.sdump"
    },
    {
     "referenced_type" : "_ZTIm"
    }
   ],
   "return_type" : "_ZTIPKv",
   "source_file" : "system/core/libutils/binder/include/utils/VectorImpl.h"
  },
  {
   "function_name" : "android::VectorImpl::capacity",
   "linker_set_key" : "_ZNK7android10VectorImpl8capacityEv",
   "parameters" :
   [
    {
     "is_this_ptr" : true,
     "referenced_type" : "_ZTIPKN7android10VectorImplE#ODR:out/soong/.intermediates/system/core/libutils/binder/libutils_binder/android_vendor_arm64_armv8-a_cortex-a53_static_afdo-libutils/obj/system/core/libutils/binder/RefBase.sdump"
    }
   ],
   "return_type" : "_ZTIm",
   "source_file" : "system/core/libutils/binder/include/utils/VectorImpl.h"
  },
  {
   "access" : "protected",
   "function_name" : "android::VectorImpl::itemSize",
   "linker_set_key" : "_ZNK7android10VectorImpl8itemSizeEv",
   "parameters" :
   [
    {
     "is_this_ptr" : true,
     "referenced_type" : "_ZTIPKN7android10VectorImplE#ODR:out/soong/.intermediates/system/core/libutils/binder/libutils_binder/android_vendor_arm64_armv8-a_cortex-a53_static_afdo-libutils/obj/system/core/libutils/binder/RefBase.sdump"
    }
   ],
   "return_type" : "_ZTIm",
   "source_file" : "system/core/libutils/binder/include/utils/VectorImpl.h"
  },
  {
   "access" : "private",
   "function_name" : "android::SortedVectorImpl::_indexOrderOf",
   "linker_set_key" : "_ZNK7android16SortedVectorImpl13_indexOrderOfEPKvPm",
   "parameters" :
   [
    {
     "is_this_ptr" : true,
     "referenced_type" : "_ZTIPKN7android16SortedVectorImplE"
    },
    {
     "referenced_type" : "_ZTIPKv"
    },
    {
     "default_arg" : true,
     "referenced_type" : "_ZTIPm"
    }
   ],
   "return_type" : "_ZTIl",
   "source_file" : "system/core/libutils/binder/include/utils/VectorImpl.h"
  },
  {
   "function_name" : "android::SortedVectorImpl::indexOf",
   "linker_set_key" : "_ZNK7android16SortedVectorImpl7indexOfEPKv",
   "parameters" :
   [
    {
     "is_this_ptr" : true,
     "referenced_type" : "_ZTIPKN7android16SortedVectorImplE"
    },
    {
     "referenced_type" : "_ZTIPKv"
    }
   ],
   "return_type" : "_ZTIl",
   "source_file" : "system/core/libutils/binder/include/utils/VectorImpl.h"
  },
  {
   "function_name" : "android::SortedVectorImpl::orderOf",
   "linker_set_key" : "_ZNK7android16SortedVectorImpl7orderOfEPKv",
   "parameters" :
   [
    {
     "is_this_ptr" : true,
     "referenced_type" : "_ZTIPKN7android16SortedVectorImplE"
    },
    {
     "referenced_type" : "_ZTIPKv"
    }
   ],
   "return_type" : "_ZTIm",
   "source_file" : "system/core/libutils/binder/include/utils/VectorImpl.h"
  },
  {
   "function_name" : "android::Looper::getAllowNonCallbacks",
   "linker_set_key" : "_ZNK7android6Looper20getAllowNonCallbacksEv",
   "parameters" :
   [
    {
     "is_this_ptr" : true,
     "referenced_type" : "_ZTIPKN7android6LooperE"
    }
   ],
   "return_type" : "_ZTIb",
   "source_file" : "system/core/libutils/include/utils/Looper.h"
  },
  {
   "function_name" : "android::Looper::Request::getEpollEvents",
   "linker_set_key" : "_ZNK7android6Looper7Request14getEpollEventsEv",
   "parameters" :
   [
    {
     "is_this_ptr" : true,
     "referenced_type" : "_ZTIPKN7android6Looper7RequestE"
    }
   ],
   "return_type" : "_ZTIj",
   "source_file" : "system/core/libutils/include/utils/Looper.h"
  },
  {
   "function_name" : "android::Looper::isPolling",
   "linker_set_key" : "_ZNK7android6Looper9isPollingEv",
   "parameters" :
   [
    {
     "is_this_ptr" : true,
     "referenced_type" : "_ZTIPKN7android6LooperE"
    }
   ],
   "return_type" : "_ZTIb",
   "source_file" : "system/core/libutils/include/utils/Looper.h"
  },
  {
   "access" : "protected",
   "function_name" : "android::Thread::exitPending",
   "linker_set_key" : "_ZNK7android6Thread11exitPendingEv",
   "parameters" :
   [
    {
     "is_this_ptr" : true,
     "referenced_type" : "_ZTIPKN7android6ThreadE"
    }
   ],
   "return_type" : "_ZTIb",
   "source_file" : "system/core/libutils/include/utils/Thread.h"
  },
  {
   "function_name" : "android::Thread::getTid",
   "linker_set_key" : "_ZNK7android6Thread6getTidEv",
   "parameters" :
   [
    {
     "is_this_ptr" : true,
     "referenced_type" : "_ZTIPKN7android6ThreadE"
    }
   ],
   "return_type" : "_ZTIi",
   "source_file" : "system/core/libutils/include/utils/Thread.h"
  },
  {
   "function_name" : "android::Thread::isRunning",
   "linker_set_key" : "_ZNK7android6Thread9isRunningEv",
   "parameters" :
   [
    {
     "is_this_ptr" : true,
     "referenced_type" : "_ZTIPKN7android6ThreadE"
    }
   ],
   "return_type" : "_ZTIb",
   "source_file" : "system/core/libutils/include/utils/Thread.h"
  },
  {
   "function_name" : "android::RefBase::createWeak",
   "linker_set_key" : "_ZNK7android7RefBase10createWeakEPKv",
   "parameters" :
   [
    {
     "is_this_ptr" : true,
     "referenced_type" : "_ZTIPKN7android7RefBaseE#ODR:out/soong/.intermediates/system/core/libutils/binder/libutils_binder/android_vendor_arm64_armv8-a_cortex-a53_static_afdo-libutils/obj/system/core/libutils/binder/RefBase.sdump"
    },
    {
     "referenced_type" : "_ZTIPKv"
    }
   ],
   "return_type" : "_ZTIPN7android7RefBase12weakref_typeE#ODR:out/soong/.intermediates/system/core/libutils/binder/libutils_binder/android_vendor_arm64_armv8-a_cortex-a53_static_afdo-libutils/obj/system/core/libutils/binder/RefBase.sdump",
   "source_file" : "system/core/libutils/binder/include/utils/RefBase.h"
  },
  {
   "function_name" : "android::RefBase::getWeakRefs",
   "linker_set_key" : "_ZNK7android7RefBase11getWeakRefsEv",
   "parameters" :
   [
    {
     "is_this_ptr" : true,
     "referenced_type" : "_ZTIPKN7android7RefBaseE#ODR:out/soong/.intermediates/system/core/libutils/binder/libutils_binder/android_vendor_arm64_armv8-a_cortex-a53_static_afdo-libutils/obj/system/core/libutils/binder/RefBase.sdump"
    }
   ],
   "return_type" : "_ZTIPN7android7RefBase12weakref_typeE#ODR:out/soong/.intermediates/system/core/libutils/binder/libutils_binder/android_vendor_arm64_armv8-a_cortex-a53_static_afdo-libutils/obj/system/core/libutils/binder/RefBase.sdump",
   "source_file" : "system/core/libutils/binder/include/utils/RefBase.h"
  },
  {
   "function_name" : "android::RefBase::weakref_type::getWeakCount",
   "linker_set_key" : "_ZNK7android7RefBase12weakref_type12getWeakCountEv",
   "parameters" :
   [
    {
     "is_this_ptr" : true,
     "referenced_type" : "_ZTIPKN7android7RefBase12weakref_typeE"
    }
   ],
   "return_type" : "_ZTIi",
   "source_file" : "system/core/libutils/binder/include/utils/RefBase.h"
  },
  {
   "function_name" : "android::RefBase::weakref_type::refBase",
   "linker_set_key" : "_ZNK7android7RefBase12weakref_type7refBaseEv",
   "parameters" :
   [
    {
     "is_this_ptr" : true,
     "referenced_type" : "_ZTIPKN7android7RefBase12weakref_typeE"
    }
   ],
   "return_type" : "_ZTIPN7android7RefBaseE#ODR:out/soong/.intermediates/system/core/libutils/binder/libutils_binder/android_vendor_arm64_armv8-a_cortex-a53_static_afdo-libutils/obj/system/core/libutils/binder/RefBase.sdump",
   "source_file" : "system/core/libutils/binder/include/utils/RefBase.h"
  },
  {
   "function_name" : "android::RefBase::weakref_type::printRefs",
   "linker_set_key" : "_ZNK7android7RefBase12weakref_type9printRefsEv",
   "parameters" :
   [
    {
     "is_this_ptr" : true,
     "referenced_type" : "_ZTIPKN7android7RefBase12weakref_typeE"
    }
   ],
   "return_type" : "_ZTIv",
   "source_file" : "system/core/libutils/binder/include/utils/RefBase.h"
  },
  {
   "function_name" : "android::RefBase::forceIncStrong",
   "linker_set_key" : "_ZNK7android7RefBase14forceIncStrongEPKv",
   "parameters" :
   [
    {
     "is_this_ptr" : true,
     "referenced_type" : "_ZTIPKN7android7RefBaseE#ODR:out/soong/.intermediates/system/core/libutils/binder/libutils_binder/android_vendor_arm64_armv8-a_cortex-a53_static_afdo-libutils/obj/system/core/libutils/binder/RefBase.sdump"
    },
    {
     "referenced_type" : "_ZTIPKv"
    }
   ],
   "return_type" : "_ZTIv",
   "source_file" : "system/core/libutils/binder/include/utils/RefBase.h"
  },
  {
   "function_name" : "android::RefBase::getStrongCount",
   "linker_set_key" : "_ZNK7android7RefBase14getStrongCountEv",
   "parameters" :
   [
    {
     "is_this_ptr" : true,
     "referenced_type" : "_ZTIPKN7android7RefBaseE#ODR:out/soong/.intermediates/system/core/libutils/binder/libutils_binder/android_vendor_arm64_armv8-a_cortex-a53_static_afdo-libutils/obj/system/core/libutils/binder/RefBase.sdump"
    }
   ],
   "return_type" : "_ZTIi",
   "source_file" : "system/core/libutils/binder/include/utils/RefBase.h"
  },
  {
   "function_name" : "android::RefBase::incStrongRequireStrong",
   "linker_set_key" : "_ZNK7android7RefBase22incStrongRequireStrongEPKv",
   "parameters" :
   [
    {
     "is_this_ptr" : true,
     "referenced_type" : "_ZTIPKN7android7RefBaseE#ODR:out/soong/.intermediates/system/core/libutils/binder/libutils_binder/android_vendor_arm64_armv8-a_cortex-a53_static_afdo-libutils/obj/system/core/libutils/binder/RefBase.sdump"
    },
    {
     "referenced_type" : "_ZTIPKv"
    }
   ],
   "return_type" : "_ZTIv",
   "source_file" : "system/core/libutils/binder/include/utils/RefBase.h"
  },
  {
   "function_name" : "android::RefBase::decStrong",
   "linker_set_key" : "_ZNK7android7RefBase9decStrongEPKv",
   "parameters" :
   [
    {
     "is_this_ptr" : true,
     "referenced_type" : "_ZTIPKN7android7RefBaseE#ODR:out/soong/.intermediates/system/core/libutils/binder/libutils_binder/android_vendor_arm64_armv8-a_cortex-a53_static_afdo-libutils/obj/system/core/libutils/binder/RefBase.sdump"
    },
    {
     "referenced_type" : "_ZTIPKv"
    }
   ],
   "return_type" : "_ZTIv",
   "source_file" : "system/core/libutils/binder/include/utils/RefBase.h"
  },
  {
   "function_name" : "android::RefBase::incStrong",
   "linker_set_key" : "_ZNK7android7RefBase9incStrongEPKv",
   "parameters" :
   [
    {
     "is_this_ptr" : true,
     "referenced_type" : "_ZTIPKN7android7RefBaseE#ODR:out/soong/.intermediates/system/core/libutils/binder/libutils_binder/android_vendor_arm64_armv8-a_cortex-a53_static_afdo-libutils/obj/system/core/libutils/binder/RefBase.sdump"
    },
    {
     "referenced_type" : "_ZTIPKv"
    }
   ],
   "return_type" : "_ZTIv",
   "source_file" : "system/core/libutils/binder/include/utils/RefBase.h"
  },
  {
   "access" : "private",
   "function_name" : "android::String8::getPathDir",
   "linker_set_key" : "_ZNK7android7String810getPathDirEv",
   "parameters" :
   [
    {
     "is_this_ptr" : true,
     "referenced_type" : "_ZTIPKN7android7String8E#ODR:out/soong/.intermediates/system/core/libutils/binder/libutils_binder/android_vendor_arm64_armv8-a_cortex-a53_static_afdo-libutils/obj/system/core/libutils/binder/RefBase.sdump"
    }
   ],
   "return_type" : "_ZTIN7android7String8E#ODR:out/soong/.intermediates/system/core/libutils/binder/libutils_binder/android_vendor_arm64_armv8-a_cortex-a53_static_afdo-libutils/obj/system/core/libutils/binder/RefBase.sdump",
   "source_file" : "system/core/libutils/binder/include/utils/String8.h"
  },
  {
   "access" : "private",
   "function_name" : "android::String8::getPathExtension",
   "linker_set_key" : "_ZNK7android7String816getPathExtensionEv",
   "parameters" :
   [
    {
     "is_this_ptr" : true,
     "referenced_type" : "_ZTIPKN7android7String8E#ODR:out/soong/.intermediates/system/core/libutils/binder/libutils_binder/android_vendor_arm64_armv8-a_cortex-a53_static_afdo-libutils/obj/system/core/libutils/binder/RefBase.sdump"
    }
   ],
   "return_type" : "_ZTIN7android7String8E#ODR:out/soong/.intermediates/system/core/libutils/binder/libutils_binder/android_vendor_arm64_armv8-a_cortex-a53_static_afdo-libutils/obj/system/core/libutils/binder/RefBase.sdump",
   "source_file" : "system/core/libutils/binder/include/utils/String8.h"
  },
  {
   "function_name" : "android::String8::find",
   "linker_set_key" : "_ZNK7android7String84findEPKcm",
   "parameters" :
   [
    {
     "is_this_ptr" : true,
     "referenced_type" : "_ZTIPKN7android7String8E#ODR:out/soong/.intermediates/system/core/libutils/binder/libutils_binder/android_vendor_arm64_armv8-a_cortex-a53_static_afdo-libutils/obj/system/core/libutils/binder/RefBase.sdump"
    },
    {
     "referenced_type" : "_ZTIPKc"
    },
    {
     "default_arg" : true,
     "referenced_type" : "_ZTIm"
    }
   ],
   "return_type" : "_ZTIl",
   "source_file" : "system/core/libutils/binder/include/utils/String8.h"
  },
  {
   "function_name" : "android::String8::length",
   "linker_set_key" : "_ZNK7android7String86lengthEv",
   "parameters" :
   [
    {
     "is_this_ptr" : true,
     "referenced_type" : "_ZTIPKN7android7String8E#ODR:out/soong/.intermediates/system/core/libutils/binder/libutils_binder/android_vendor_arm64_armv8-a_cortex-a53_static_afdo-libutils/obj/system/core/libutils/binder/RefBase.sdump"
    }
   ],
   "return_type" : "_ZTIm",
   "source_file" : "system/core/libutils/binder/include/utils/String8.h"
  },
  {
   "function_name" : "android::String16::startsWith",
   "linker_set_key" : "_ZNK7android8String1610startsWithEPKDs",
   "parameters" :
   [
    {
     "is_this_ptr" : true,
     "referenced_type" : "_ZTIPKN7android8String16E"
    },
    {
     "referenced_type" : "_ZTIPKDs"
    }
   ],
   "return_type" : "_ZTIb",
   "source_file" : "system/core/libutils/binder/include/utils/String16.h"
  },
  {
   "function_name" : "android::String16::startsWith",
   "linker_set_key" : "_ZNK7android8String1610startsWithERKS0_",
   "parameters" :
   [
    {
     "is_this_ptr" : true,
     "referenced_type" : "_ZTIPKN7android8String16E"
    },
    {
     "referenced_type" : "_ZTIRKN7android8String16E"
    }
   ],
   "return_type" : "_ZTIb",
   "source_file" : "system/core/libutils/binder/include/utils/String16.h"
  },
  {
   "function_name" : "android::String16::isStaticString",
   "linker_set_key" : "_ZNK7android8String1614isStaticStringEv",
   "parameters" :
   [
    {
     "is_this_ptr" : true,
     "referenced_type" : "_ZTIPKN7android8String16E"
    }
   ],
   "return_type" : "_ZTIb",
   "source_file" : "system/core/libutils/binder/include/utils/String16.h"
  },
  {
   "access" : "private",
   "function_name" : "android::String16::staticStringSize",
   "linker_set_key" : "_ZNK7android8String1616staticStringSizeEv",
   "parameters" :
   [
    {
     "is_this_ptr" : true,
     "referenced_type" : "_ZTIPKN7android8String16E"
    }
   ],
   "return_type" : "_ZTIm",
   "source_file" : "system/core/libutils/binder/include/utils/String16.h"
  },
  {
   "function_name" : "android::String16::size",
   "linker_set_key" : "_ZNK7android8String164sizeEv",
   "parameters" :
   [
    {
     "is_this_ptr" : true,
     "referenced_type" : "_ZTIPKN7android8String16E"
    }
   ],
   "return_type" : "_ZTIm",
   "source_file" : "system/core/libutils/binder/include/utils/String16.h"
  },
  {
   "function_name" : "android::String16::contains",
   "linker_set_key" : "_ZNK7android8String168containsEPKDs",
   "parameters" :
   [
    {
     "is_this_ptr" : true,
     "referenced_type" : "_ZTIPKN7android8String16E"
    },
    {
     "referenced_type" : "_ZTIPKDs"
    }
   ],
   "return_type" : "_ZTIb",
   "source_file" : "system/core/libutils/binder/include/utils/String16.h"
  },
  {
   "function_name" : "android::String16::findLast",
   "linker_set_key" : "_ZNK7android8String168findLastEDs",
   "parameters" :
   [
    {
     "is_this_ptr" : true,
     "referenced_type" : "_ZTIPKN7android8String16E"
    },
    {
     "referenced_type" : "_ZTIDs"
    }
   ],
   "return_type" : "_ZTIl",
   "source_file" : "system/core/libutils/binder/include/utils/String16.h"
  },
  {
   "function_name" : "android::String16::findFirst",
   "linker_set_key" : "_ZNK7android8String169findFirstEDs",
   "parameters" :
   [
    {
     "is_this_ptr" : true,
     "referenced_type" : "_ZTIPKN7android8String16E"
    },
    {
     "referenced_type" : "_ZTIDs"
    }
   ],
   "return_type" : "_ZTIl",
   "source_file" : "system/core/libutils/binder/include/utils/String16.h"
  },
  {
   "function_name" : "android::StopWatch::elapsedTime",
   "linker_set_key" : "_ZNK7android9StopWatch11elapsedTimeEv",
   "parameters" :
   [
    {
     "is_this_ptr" : true,
     "referenced_type" : "_ZTIPKN7android9StopWatchE"
    }
   ],
   "return_type" : "_ZTIl",
   "source_file" : "system/core/libutils/include/utils/StopWatch.h"
  },
  {
   "function_name" : "android::StopWatch::name",
   "linker_set_key" : "_ZNK7android9StopWatch4nameEv",
   "parameters" :
   [
    {
     "is_this_ptr" : true,
     "referenced_type" : "_ZTIPKN7android9StopWatchE"
    }
   ],
   "return_type" : "_ZTIPKc",
   "source_file" : "system/core/libutils/include/utils/StopWatch.h"
  },
  {
   "function_name" : "android::Tokenizer::getLocation",
   "linker_set_key" : "_ZNK7android9Tokenizer11getLocationEv",
   "parameters" :
   [
    {
     "is_this_ptr" : true,
     "referenced_type" : "_ZTIPKN7android9TokenizerE"
    }
   ],
   "return_type" : "_ZTIN7android7String8E",
   "source_file" : "system/core/libutils/include/utils/Tokenizer.h"
  },
  {
   "function_name" : "android::Tokenizer::peekRemainderOfLine",
   "linker_set_key" : "_ZNK7android9Tokenizer19peekRemainderOfLineEv",
   "parameters" :
   [
    {
     "is_this_ptr" : true,
     "referenced_type" : "_ZTIPKN7android9TokenizerE"
    }
   ],
   "return_type" : "_ZTIN7android7String8E",
   "source_file" : "system/core/libutils/include/utils/Tokenizer.h"
  },
  {
   "function_name" : "androidCreateRawThreadEtc",
   "linker_set_key" : "androidCreateRawThreadEtc",
   "parameters" :
   [
    {
     "referenced_type" : "_ZTIPFiPvE"
    },
    {
     "referenced_type" : "_ZTIPv"
    },
    {
     "referenced_type" : "_ZTIPKc"
    },
    {
     "referenced_type" : "_ZTIi"
    },
    {
     "referenced_type" : "_ZTIm"
    },
    {
     "referenced_type" : "_ZTIPPv"
    }
   ],
   "return_type" : "_ZTIi",
   "source_file" : "system/core/libutils/include/utils/AndroidThreads.h"
  },
  {
   "function_name" : "androidCreateThread",
   "linker_set_key" : "androidCreateThread",
   "parameters" :
   [
    {
     "referenced_type" : "_ZTIPFiPvE"
    },
    {
     "referenced_type" : "_ZTIPv"
    }
   ],
   "return_type" : "_ZTIi",
   "source_file" : "system/core/libutils/include/utils/AndroidThreads.h"
  },
  {
   "function_name" : "androidCreateThreadEtc",
   "linker_set_key" : "androidCreateThreadEtc",
   "parameters" :
   [
    {
     "referenced_type" : "_ZTIPFiPvE"
    },
    {
     "referenced_type" : "_ZTIPv"
    },
    {
     "referenced_type" : "_ZTIPKc"
    },
    {
     "referenced_type" : "_ZTIi"
    },
    {
     "referenced_type" : "_ZTIm"
    },
    {
     "referenced_type" : "_ZTIPPv"
    }
   ],
   "return_type" : "_ZTIi",
   "source_file" : "system/core/libutils/include/utils/AndroidThreads.h"
  },
  {
   "function_name" : "androidGetThreadId",
   "linker_set_key" : "androidGetThreadId",
   "return_type" : "_ZTIPv",
   "source_file" : "system/core/libutils/include/utils/AndroidThreads.h"
  },
  {
   "function_name" : "androidGetThreadPriority",
   "linker_set_key" : "androidGetThreadPriority",
   "parameters" :
   [
    {
     "referenced_type" : "_ZTIi"
    }
   ],
   "return_type" : "_ZTIi",
   "source_file" : "system/core/libutils/include/utils/AndroidThreads.h"
  },
  {
   "function_name" : "androidSetCreateThreadFunc",
   "linker_set_key" : "androidSetCreateThreadFunc",
   "parameters" :
   [
    {
     "referenced_type" : "_ZTIPFiPFiPvES_PKcimPS_E"
    }
   ],
   "return_type" : "_ZTIv",
   "source_file" : "system/core/libutils/include/utils/AndroidThreads.h"
  },
  {
   "function_name" : "androidSetThreadName",
   "linker_set_key" : "androidSetThreadName",
   "parameters" :
   [
    {
     "referenced_type" : "_ZTIPKc"
    }
   ],
   "return_type" : "_ZTIv",
   "source_file" : "system/core/libutils/include/utils/AndroidThreads.h"
  },
  {
   "function_name" : "androidSetThreadPriority",
   "linker_set_key" : "androidSetThreadPriority",
   "parameters" :
   [
    {
     "referenced_type" : "_ZTIi"
    },
    {
     "referenced_type" : "_ZTIi"
    }
   ],
   "return_type" : "_ZTIi",
   "source_file" : "system/core/libutils/include/utils/AndroidThreads.h"
  },
  {
   "function_name" : "strcmp16",
   "linker_set_key" : "strcmp16",
   "parameters" :
   [
    {
     "referenced_type" : "_ZTIPKDs"
    },
    {
     "referenced_type" : "_ZTIPKDs"
    }
   ],
   "return_type" : "_ZTIi",
   "source_file" : "system/core/libutils/binder/include/utils/Unicode.h"
  },
  {
   "function_name" : "strlen16",
   "linker_set_key" : "strlen16",
   "parameters" :
   [
    {
     "referenced_type" : "_ZTIPKDs"
    }
   ],
   "return_type" : "_ZTIm",
   "source_file" : "system/core/libutils/binder/include/utils/Unicode.h"
  },
  {
   "function_name" : "strncmp16",
   "linker_set_key" : "strncmp16",
   "parameters" :
   [
    {
     "referenced_type" : "_ZTIPKDs"
    },
    {
     "referenced_type" : "_ZTIPKDs"
    },
    {
     "referenced_type" : "_ZTIm"
    }
   ],
   "return_type" : "_ZTIi",
   "source_file" : "system/core/libutils/binder/include/utils/Unicode.h"
  },
  {
   "function_name" : "strnlen16",
   "linker_set_key" : "strnlen16",
   "parameters" :
   [
    {
     "referenced_type" : "_ZTIPKDs"
    },
    {
     "referenced_type" : "_ZTIm"
    }
   ],
   "return_type" : "_ZTIm",
   "source_file" : "system/core/libutils/binder/include/utils/Unicode.h"
  },
  {
   "function_name" : "strstr16",
   "linker_set_key" : "strstr16",
   "parameters" :
   [
    {
     "referenced_type" : "_ZTIPKDs"
    },
    {
     "referenced_type" : "_ZTIPKDs"
    }
   ],
   "return_type" : "_ZTIPDs",
   "source_file" : "system/core/libutils/binder/include/utils/Unicode.h"
  },
  {
   "function_name" : "strzcmp16",
   "linker_set_key" : "strzcmp16",
   "parameters" :
   [
    {
     "referenced_type" : "_ZTIPKDs"
    },
    {
     "referenced_type" : "_ZTIm"
    },
    {
     "referenced_type" : "_ZTIPKDs"
    },
    {
     "referenced_type" : "_ZTIm"
    }
   ],
   "return_type" : "_ZTIi",
   "source_file" : "system/core/libutils/binder/include/utils/Unicode.h"
  },
  {
   "function_name" : "systemTime",
   "linker_set_key" : "systemTime",
   "parameters" :
   [
    {
     "default_arg" : true,
     "referenced_type" : "_ZTIi"
    }
   ],
   "return_type" : "_ZTIl",
   "source_file" : "system/core/libutils/include/utils/Timers.h"
  },
  {
   "function_name" : "toMillisecondTimeoutDelay",
   "linker_set_key" : "toMillisecondTimeoutDelay",
   "parameters" :
   [
    {
     "referenced_type" : "_ZTIl"
    },
    {
     "referenced_type" : "_ZTIl"
    }
   ],
   "return_type" : "_ZTIi",
   "source_file" : "system/core/libutils/include/utils/Timers.h"
  },
  {
   "function_name" : "utf16_to_utf8",
   "linker_set_key" : "utf16_to_utf8",
   "parameters" :
   [
    {
     "referenced_type" : "_ZTIPKDs"
    },
    {
     "referenced_type" : "_ZTIm"
    },
    {
     "referenced_type" : "_ZTIPc"
    },
    {
     "referenced_type" : "_ZTIm"
    }
   ],
   "return_type" : "_ZTIv",
   "source_file" : "system/core/libutils/binder/include/utils/Unicode.h"
  },
  {
   "function_name" : "utf16_to_utf8_length",
   "linker_set_key" : "utf16_to_utf8_length",
   "parameters" :
   [
    {
     "referenced_type" : "_ZTIPKDs"
    },
    {
     "referenced_type" : "_ZTIm"
    }
   ],
   "return_type" : "_ZTIl",
   "source_file" : "system/core/libutils/binder/include/utils/Unicode.h"
  },
  {
   "function_name" : "utf32_from_utf8_at",
   "linker_set_key" : "utf32_from_utf8_at",
   "parameters" :
   [
    {
     "referenced_type" : "_ZTIPKc"
    },
    {
     "referenced_type" : "_ZTIm"
    },
    {
     "referenced_type" : "_ZTIm"
    },
    {
     "referenced_type" : "_ZTIPm"
    }
   ],
   "return_type" : "_ZTIi",
   "source_file" : "system/core/libutils/binder/include/utils/Unicode.h"
  },
  {
   "function_name" : "utf32_to_utf8",
   "linker_set_key" : "utf32_to_utf8",
   "parameters" :
   [
    {
     "referenced_type" : "_ZTIPKDi"
    },
    {
     "referenced_type" : "_ZTIm"
    },
    {
     "referenced_type" : "_ZTIPc"
    },
    {
     "referenced_type" : "_ZTIm"
    }
   ],
   "return_type" : "_ZTIv",
   "source_file" : "system/core/libutils/binder/include/utils/Unicode.h"
  },
  {
   "function_name" : "utf32_to_utf8_length",
   "linker_set_key" : "utf32_to_utf8_length",
   "parameters" :
   [
    {
     "referenced_type" : "_ZTIPKDi"
    },
    {
     "referenced_type" : "_ZTIm"
    }
   ],
   "return_type" : "_ZTIl",
   "source_file" : "system/core/libutils/binder/include/utils/Unicode.h"
  },
  {
   "function_name" : "utf8_to_utf16",
   "linker_set_key" : "utf8_to_utf16",
   "parameters" :
   [
    {
     "referenced_type" : "_ZTIPKh"
    },
    {
     "referenced_type" : "_ZTIm"
    },
    {
     "referenced_type" : "_ZTIPDs"
    },
    {
     "referenced_type" : "_ZTIm"
    }
   ],
   "return_type" : "_ZTIPDs",
   "source_file" : "system/core/libutils/binder/include/utils/Unicode.h"
  },
  {
   "function_name" : "utf8_to_utf16_length",
   "linker_set_key" : "utf8_to_utf16_length",
   "parameters" :
   [
    {
     "referenced_type" : "_ZTIPKh"
    },
    {
     "referenced_type" : "_ZTIm"
    },
    {
     "default_arg" : true,
     "referenced_type" : "_ZTIb"
    }
   ],
   "return_type" : "_ZTIl",
   "source_file" : "system/core/libutils/binder/include/utils/Unicode.h"
  },
  {
   "function_name" : "utf8_to_utf16_no_null_terminator",
   "linker_set_key" : "utf8_to_utf16_no_null_terminator",
   "parameters" :
   [
    {
     "referenced_type" : "_ZTIPKh"
    },
    {
     "referenced_type" : "_ZTIm"
    },
    {
     "referenced_type" : "_ZTIPDs"
    },
    {
     "referenced_type" : "_ZTIm"
    }
   ],
   "return_type" : "_ZTIPDs",
   "source_file" : "system/core/libutils/binder/include/utils/Unicode.h"
  }
 ],
 "global_vars" :
 [
  {
   "access" : "private",
   "linker_set_key" : "_ZN7android7FileMap9mPageSizeE",
   "name" : "android::FileMap::mPageSize",
   "referenced_type" : "_ZTIl",
   "source_file" : "system/core/libutils/include/utils/FileMap.h"
  }
 ],
 "lvalue_reference_types" :
 [
  {
   "alignment" : 8,
   "linker_set_key" : "_ZTIRA1_KDs",
   "name" : "const char16_t (&)[1]",
   "referenced_type" : "_ZTIA1_KDs",
   "size" : 8,
   "source_file" : "system/core/libutils/binder/include/utils/String16.h"
  },
  {
   "alignment" : 8,
   "linker_set_key" : "_ZTIRKN7android10VectorImplE",
   "name" : "const android::VectorImpl &",
   "referenced_type" : "_ZTIKN7android10VectorImplE#ODR:out/soong/.intermediates/system/core/libutils/binder/libutils_binder/android_vendor_arm64_armv8-a_cortex-a53_static_afdo-libutils/obj/system/core/libutils/binder/RefBase.sdump",
   "size" : 8,
   "source_file" : "system/core/libutils/binder/include/utils/VectorImpl.h"
  },
  {
   "alignment" : 8,
   "linker_set_key" : "_ZTIRKN7android16ReferenceRenamerE",
   "name" : "const android::ReferenceRenamer &",
   "referenced_type" : "_ZTIKN7android16ReferenceRenamerE",
   "size" : 8,
   "source_file" : "system/core/libutils/binder/include/utils/RefBase.h"
  },
  {
   "alignment" : 8,
   "linker_set_key" : "_ZTIRKN7android16SortedVectorImplE",
   "name" : "const android::SortedVectorImpl &",
   "referenced_type" : "_ZTIKN7android16SortedVectorImplE",
   "size" : 8,
   "source_file" : "system/core/libutils/binder/include/utils/VectorImpl.h"
  },
  {
   "alignment" : 8,
   "linker_set_key" : "_ZTIRKN7android28sysprop_change_callback_infoE",
   "name" : "const android::sysprop_change_callback_info &",
   "referenced_type" : "_ZTIKN7android28sysprop_change_callback_infoE",
   "size" : 8,
   "source_file" : "system/core/libutils/include/utils/Vector.h"
  },
  {
   "alignment" : 8,
   "linker_set_key" : "_ZTIRKN7android2spINS_14LooperCallbackEEE",
   "name" : "const android::sp<android::LooperCallback> &",
   "referenced_type" : "_ZTIKN7android2spINS_14LooperCallbackEEE",
   "size" : 8,
   "source_file" : "system/core/libutils/include/utils/StrongPointer.h"
  },
  {
   "alignment" : 8,
   "linker_set_key" : "_ZTIRKN7android2spINS_14MessageHandlerEEE",
   "name" : "const android::sp<android::MessageHandler> &",
   "referenced_type" : "_ZTIKN7android2spINS_14MessageHandlerEEE",
   "size" : 8,
   "source_file" : "system/core/libutils/include/utils/StrongPointer.h"
  },
  {
   "alignment" : 8,
   "linker_set_key" : "_ZTIRKN7android2spINS_20SimpleLooperCallbackEEE",
   "name" : "const android::sp<android::SimpleLooperCallback> &",
   "referenced_type" : "_ZTIKN7android2spINS_20SimpleLooperCallbackEEE",
   "size" : 8,
   "source_file" : "system/core/libutils/include/utils/StrongPointer.h"
  },
  {
   "alignment" : 8,
   "linker_set_key" : "_ZTIRKN7android2spINS_6LooperEEE",
   "name" : "const android::sp<android::Looper> &",
   "referenced_type" : "_ZTIKN7android2spINS_6LooperEEE",
   "size" : 8,
   "source_file" : "system/core/libutils/include/utils/StrongPointer.h"
  },
  {
   "alignment" : 8,
   "linker_set_key" : "_ZTIRKN7android2spINS_6ThreadEEE",
   "name" : "const android::sp<android::Thread> &",
   "referenced_type" : "_ZTIKN7android2spINS_6ThreadEEE",
   "size" : 8,
   "source_file" : "system/core/libutils/include/utils/RefBase.h"
  },
  {
   "alignment" : 8,
   "linker_set_key" : "_ZTIRKN7android2wpINS_14MessageHandlerEEE",
   "name" : "const android::wp<android::MessageHandler> &",
   "referenced_type" : "_ZTIKN7android2wpINS_14MessageHandlerEEE",
   "size" : 8,
   "source_file" : "system/core/libutils/include/utils/RefBase.h"
  },
  {
   "alignment" : 8,
   "linker_set_key" : "_ZTIRKN7android6Looper15MessageEnvelopeE",
   "name" : "const android::Looper::MessageEnvelope &",
   "referenced_type" : "_ZTIKN7android6Looper15MessageEnvelopeE",
   "size" : 8,
   "source_file" : "system/core/libutils/include/utils/Vector.h"
  },
  {
   "alignment" : 8,
   "linker_set_key" : "_ZTIRKN7android6Looper8ResponseE",
   "name" : "const android::Looper::Response &",
   "referenced_type" : "_ZTIKN7android6Looper8ResponseE",
   "size" : 8,
   "source_file" : "system/core/libutils/include/utils/Vector.h"
  },
  {
   "alignment" : 8,
   "linker_set_key" : "_ZTIRKN7android6VectorINS_28sysprop_change_callback_infoEEE",
   "name" : "const android::Vector<android::sysprop_change_callback_info> &",
   "referenced_type" : "_ZTIKN7android6VectorINS_28sysprop_change_callback_infoEEE",
   "size" : 8,
   "source_file" : "system/core/libutils/include/utils/Vector.h"
  },
  {
   "alignment" : 8,
   "linker_set_key" : "_ZTIRKN7android7MessageE",
   "name" : "const android::Message &",
   "referenced_type" : "_ZTIKN7android7MessageE",
   "size" : 8,
   "source_file" : "system/core/libutils/include/utils/Looper.h"
  },
  {
   "alignment" : 8,
   "linker_set_key" : "_ZTIRKN7android7String8E",
   "name" : "const android::String8 &",
   "referenced_type" : "_ZTIKN7android7String8E",
   "size" : 8,
   "source_file" : "system/core/libutils/include/utils/String8.h"
  },
  {
   "alignment" : 8,
   "linker_set_key" : "_ZTIRKN7android7String8E",
   "name" : "const android::String8 &",
   "referenced_type" : "_ZTIKN7android7String8E#ODR:out/soong/.intermediates/system/core/libutils/binder/libutils_binder/android_vendor_arm64_armv8-a_cortex-a53_static_afdo-libutils/obj/system/core/libutils/binder/RefBase.sdump",
   "self_type" : "_ZTIRKN7android7String8E#ODR:out/soong/.intermediates/system/core/libutils/binder/libutils_binder/android_vendor_arm64_armv8-a_cortex-a53_static_afdo-libutils/obj/system/core/libutils/binder/RefBase.sdump",
   "size" : 8,
   "source_file" : "system/core/libutils/binder/include/utils/String8.h"
  },
  {
   "alignment" : 8,
   "linker_set_key" : "_ZTIRKN7android8String1610StaticDataILm1EEE",
   "name" : "const android::String16::StaticData<1> &",
   "referenced_type" : "_ZTIKN7android8String1610StaticDataILm1EEE",
   "size" : 8,
   "source_file" : "system/core/libutils/binder/include/utils/String16.h"
  },
  {
   "alignment" : 8,
   "linker_set_key" : "_ZTIRKN7android8String16E",
   "name" : "const android::String16 &",
   "referenced_type" : "_ZTIKN7android8String16E",
   "size" : 8,
   "source_file" : "system/core/libutils/binder/include/utils/String16.h"
  },
  {
   "alignment" : 8,
   "linker_set_key" : "_ZTIRKa",
   "name" : "const signed char &",
   "referenced_type" : "_ZTIKa",
   "size" : 8,
   "source_file" : "system/core/libutils/include/utils/TypeHelpers.h"
  },
  {
   "alignment" : 8,
   "linker_set_key" : "_ZTIRKb",
   "name" : "const bool &",
   "referenced_type" : "_ZTIKb",
   "size" : 8,
   "source_file" : "system/core/libutils/include/utils/TypeHelpers.h"
  },
  {
   "alignment" : 8,
   "linker_set_key" : "_ZTIRKd",
   "name" : "const double &",
   "referenced_type" : "_ZTIKd",
   "size" : 8,
   "source_file" : "system/core/libutils/include/utils/TypeHelpers.h"
  },
  {
   "alignment" : 8,
   "linker_set_key" : "_ZTIRKf",
   "name" : "const float &",
   "referenced_type" : "_ZTIKf",
   "size" : 8,
   "source_file" : "system/core/libutils/include/utils/TypeHelpers.h"
  },
  {
   "alignment" : 8,
   "linker_set_key" : "_ZTIRKh",
   "name" : "const unsigned char &",
   "referenced_type" : "_ZTIKh",
   "size" : 8,
   "source_file" : "system/core/libutils/include/utils/TypeHelpers.h"
  },
  {
   "alignment" : 8,
   "linker_set_key" : "_ZTIRKi",
   "name" : "const int &",
   "referenced_type" : "_ZTIKi",
   "size" : 8,
   "source_file" : "system/core/libutils/include/utils/TypeHelpers.h"
  },
  {
   "alignment" : 8,
   "linker_set_key" : "_ZTIRKj",
   "name" : "const unsigned int &",
   "referenced_type" : "_ZTIKj",
   "size" : 8,
   "source_file" : "system/core/libutils/include/utils/TypeHelpers.h"
  },
  {
   "alignment" : 8,
   "linker_set_key" : "_ZTIRKl",
   "name" : "const long &",
   "referenced_type" : "_ZTIKl",
   "size" : 8,
   "source_file" : "system/core/libutils/include/utils/TypeHelpers.h"
  },
  {
   "alignment" : 8,
   "linker_set_key" : "_ZTIRKm",
   "name" : "const unsigned long &",
   "referenced_type" : "_ZTIKm",
   "size" : 8,
   "source_file" : "system/core/libutils/include/utils/TypeHelpers.h"
  },
  {
   "alignment" : 8,
   "linker_set_key" : "_ZTIRKs",
   "name" : "const short &",
   "referenced_type" : "_ZTIKs",
   "size" : 8,
   "source_file" : "system/core/libutils/include/utils/TypeHelpers.h"
  },
  {
   "alignment" : 8,
   "linker_set_key" : "_ZTIRKt",
   "name" : "const unsigned short &",
   "referenced_type" : "_ZTIKt",
   "size" : 8,
   "source_file" : "system/core/libutils/include/utils/TypeHelpers.h"
  },
  {
   "alignment" : 8,
   "linker_set_key" : "_ZTIRN7android10VectorImplE",
   "name" : "android::VectorImpl &",
   "referenced_type" : "_ZTIN7android10VectorImplE#ODR:out/soong/.intermediates/system/core/libutils/binder/libutils_binder/android_vendor_arm64_armv8-a_cortex-a53_static_afdo-libutils/obj/system/core/libutils/binder/RefBase.sdump",
   "size" : 8,
   "source_file" : "system/core/libutils/binder/include/utils/VectorImpl.h"
  },
  {
   "alignment" : 8,
   "linker_set_key" : "_ZTIRN7android16SortedVectorImplE",
   "name" : "android::SortedVectorImpl &",
   "referenced_type" : "_ZTIN7android16SortedVectorImplE#ODR:out/soong/.intermediates/system/core/libutils/binder/libutils_binder/android_vendor_arm64_armv8-a_cortex-a53_static_afdo-libutils/obj/system/core/libutils/binder/RefBase.sdump",
   "size" : 8,
   "source_file" : "system/core/libutils/binder/include/utils/VectorImpl.h"
  },
  {
   "alignment" : 8,
   "linker_set_key" : "_ZTIRN7android2spINS_14LooperCallbackEEE",
   "name" : "android::sp<android::LooperCallback> &",
   "referenced_type" : "_ZTIN7android2spINS_14LooperCallbackEEE",
   "size" : 8,
   "source_file" : "system/core/libutils/include/utils/StrongPointer.h"
  },
  {
   "alignment" : 8,
   "linker_set_key" : "_ZTIRN7android2spINS_14MessageHandlerEEE",
   "name" : "android::sp<android::MessageHandler> &",
   "referenced_type" : "_ZTIN7android2spINS_14MessageHandlerEEE",
   "size" : 8,
   "source_file" : "system/core/libutils/include/utils/StrongPointer.h"
  },
  {
   "alignment" : 8,
   "linker_set_key" : "_ZTIRN7android2spINS_20SimpleLooperCallbackEEE",
   "name" : "android::sp<android::SimpleLooperCallback> &",
   "referenced_type" : "_ZTIN7android2spINS_20SimpleLooperCallbackEEE",
   "size" : 8,
   "source_file" : "system/core/libutils/include/utils/StrongPointer.h"
  },
  {
   "alignment" : 8,
   "linker_set_key" : "_ZTIRN7android2spINS_6LooperEEE",
   "name" : "android::sp<android::Looper> &",
   "referenced_type" : "_ZTIN7android2spINS_6LooperEEE",
   "size" : 8,
   "source_file" : "system/core/libutils/include/utils/StrongPointer.h"
  },
  {
   "alignment" : 8,
   "linker_set_key" : "_ZTIRN7android2spINS_6ThreadEEE",
   "name" : "android::sp<android::Thread> &",
   "referenced_type" : "_ZTIN7android2spINS_6ThreadEEE",
   "size" : 8,
   "source_file" : "system/core/libutils/include/utils/StrongPointer.h"
  },
  {
   "alignment" : 8,
   "linker_set_key" : "_ZTIRN7android5MutexE",
   "name" : "android::Mutex &",
   "referenced_type" : "_ZTIN7android5MutexE",
   "size" : 8,
   "source_file" : "system/core/libutils/include/utils/Mutex.h"
  },
  {
   "alignment" : 8,
   "linker_set_key" : "_ZTIRN7android6Looper8ResponseE",
   "name" : "android::Looper::Response &",
   "referenced_type" : "_ZTIN7android6Looper8ResponseE",
   "size" : 8,
   "source_file" : "system/core/libutils/include/utils/Vector.h"
  },
  {
   "alignment" : 8,
   "linker_set_key" : "_ZTIRN7android6RWLockE",
   "name" : "android::RWLock &",
   "referenced_type" : "_ZTIN7android6RWLockE",
   "size" : 8,
   "source_file" : "system/core/libutils/include/utils/RWLock.h"
  },
  {
   "alignment" : 8,
   "linker_set_key" : "_ZTIRN7android6VectorINS_28sysprop_change_callback_infoEEE",
   "name" : "android::Vector<android::sysprop_change_callback_info> &",
   "referenced_type" : "_ZTIN7android6VectorINS_28sysprop_change_callback_infoEEE",
   "size" : 8,
   "source_file" : "system/core/libutils/include/utils/Vector.h"
  },
  {
   "alignment" : 8,
   "linker_set_key" : "_ZTIRN7android7FileMapE",
   "name" : "android::FileMap &",
   "referenced_type" : "_ZTIN7android7FileMapE",
   "size" : 8,
   "source_file" : "system/core/libutils/include/utils/FileMap.h"
  },
  {
   "alignment" : 8,
   "linker_set_key" : "_ZTIRN7android7PrinterE",
   "name" : "android::Printer &",
   "referenced_type" : "_ZTIN7android7PrinterE",
   "size" : 8,
   "source_file" : "system/core/libutils/include/utils/Printer.h"
  },
  {
   "alignment" : 8,
   "linker_set_key" : "_ZTIRN7android7String8E",
   "name" : "android::String8 &",
   "referenced_type" : "_ZTIN7android7String8E",
   "size" : 8,
   "source_file" : "system/core/libutils/include/utils/String8.h"
  },
  {
   "alignment" : 8,
   "linker_set_key" : "_ZTIRN7android7String8E",
   "name" : "android::String8 &",
   "referenced_type" : "_ZTIN7android7String8E#ODR:out/soong/.intermediates/system/core/libutils/binder/libutils_binder/android_vendor_arm64_armv8-a_cortex-a53_static_afdo-libutils/obj/system/core/libutils/binder/RefBase.sdump",
   "self_type" : "_ZTIRN7android7String8E#ODR:out/soong/.intermediates/system/core/libutils/binder/libutils_binder/android_vendor_arm64_armv8-a_cortex-a53_static_afdo-libutils/obj/system/core/libutils/binder/RefBase.sdump",
   "size" : 8,
   "source_file" : "system/core/libutils/binder/include/utils/String8.h"
  },
  {
   "alignment" : 8,
   "linker_set_key" : "_ZTIRN7android8String16E",
   "name" : "android::String16 &",
   "referenced_type" : "_ZTIN7android8String16E",
   "size" : 8,
   "source_file" : "system/core/libutils/binder/include/utils/String16.h"
  },
  {
   "alignment" : 8,
   "linker_set_key" : "_ZTIRP13native_handle",
   "name" : "native_handle *&",
   "referenced_type" : "_ZTIP13native_handle",
   "size" : 8,
   "source_file" : "system/core/libutils/include/utils/StrongPointer.h"
  },
  {
   "alignment" : 8,
   "linker_set_key" : "_ZTIRPFiiiPvE",
   "name" : "int (*&)(int, int, void *)",
   "referenced_type" : "_ZTIPFiiiPvE",
   "size" : 8,
   "source_file" : "system/core/libutils/include/utils/StrongPointer.h"
  },
  {
   "alignment" : 8,
   "linker_set_key" : "_ZTIRb",
   "name" : "bool &",
   "referenced_type" : "_ZTIb",
   "size" : 8,
   "source_file" : "system/core/libutils/include/utils/StrongPointer.h"
  }
 ],
 "pointer_types" :
 [
  {
   "alignment" : 8,
   "linker_set_key" : "_ZTIP13native_handle",
   "name" : "native_handle *",
   "referenced_type" : "_ZTI13native_handle",
   "size" : 8,
   "source_file" : "system/core/libutils/include/utils/StrongPointer.h"
  },
  {
   "alignment" : 8,
   "linker_set_key" : "_ZTIP18android_flex_plane",
   "name" : "android_flex_plane *",
   "referenced_type" : "_ZTI18android_flex_plane",
   "size" : 8,
   "source_file" : "system/core/libsystem/include/system/graphics.h"
  },
  {
   "alignment" : 8,
   "linker_set_key" : "_ZTIP3DIR",
   "name" : "DIR *",
   "referenced_type" : "_ZTI3DIR",
   "size" : 8,
   "source_file" : "system/libbase/include/android-base/unique_fd.h"
  },
  {
   "alignment" : 8,
   "linker_set_key" : "_ZTIP7__sFILE",
   "name" : "__sFILE *",
   "referenced_type" : "_ZTI7__sFILE",
   "size" : 8,
   "source_file" : "system/libbase/include/android-base/unique_fd.h"
  },
  {
   "alignment" : 8,
   "linker_set_key" : "_ZTIP7log_msg",
   "name" : "log_msg *",
   "referenced_type" : "_ZTI7log_msg",
   "size" : 8,
   "source_file" : "system/logging/liblog/include_vndk/log/log_read.h"
  },
  {
   "alignment" : 8,
   "linker_set_key" : "_ZTIPDs",
   "name" : "char16_t *",
   "referenced_type" : "_ZTIDs",
   "size" : 8,
   "source_file" : "system/core/libutils/binder/include/utils/String16.h"
  },
  {
   "alignment" : 8,
   "linker_set_key" : "_ZTIPFiPFiPvES_PKcimPS_E",
   "name" : "int (*)(int (*)(void *), void *, const char *, int, unsigned long, void **)",
   "referenced_type" : "_ZTIFiPFiPvES_PKcimPS_E",
   "size" : 8,
   "source_file" : "system/core/libutils/include/utils/AndroidThreads.h"
  },
  {
   "alignment" : 8,
   "linker_set_key" : "_ZTIPFiPKvS0_E",
   "name" : "int (*)(const void *, const void *)",
   "referenced_type" : "_ZTIFiPKvS0_E",
   "size" : 8,
   "source_file" : "system/core/libutils/binder/include/utils/VectorImpl.h"
  },
  {
   "alignment" : 8,
   "linker_set_key" : "_ZTIPFiPKvS0_PvE",
   "name" : "int (*)(const void *, const void *, void *)",
   "referenced_type" : "_ZTIFiPKvS0_PvE",
   "size" : 8,
   "source_file" : "system/core/libutils/binder/include/utils/VectorImpl.h"
  },
  {
   "alignment" : 8,
   "linker_set_key" : "_ZTIPFiPvE",
   "name" : "int (*)(void *)",
   "referenced_type" : "_ZTIFiPvE",
   "size" : 8,
   "source_file" : "system/core/libutils/include/utils/AndroidThreads.h"
  },
  {
   "alignment" : 8,
   "linker_set_key" : "_ZTIPFiiiPvE",
   "name" : "int (*)(int, int, void *)",
   "referenced_type" : "_ZTIFiiiPvE",
   "size" : 8,
   "source_file" : "system/core/libutils/include/utils/StrongPointer.h"
  },
  {
   "alignment" : 8,
   "linker_set_key" : "_ZTIPFvvE",
   "name" : "void (*)()",
   "referenced_type" : "_ZTIFvvE",
   "size" : 8,
   "source_file" : "system/core/libutils/include/utils/misc.h"
  },
  {
   "alignment" : 8,
   "linker_set_key" : "_ZTIPK13native_handle",
   "name" : "const native_handle *",
   "referenced_type" : "_ZTIK13native_handle",
   "size" : 8,
   "source_file" : "system/core/libutils/include/utils/NativeHandle.h"
  },
  {
   "alignment" : 8,
   "linker_set_key" : "_ZTIPK7log_msg",
   "name" : "const log_msg *",
   "referenced_type" : "_ZTIK7log_msg",
   "size" : 8,
   "source_file" : "system/logging/liblog/include_vndk/log/log_read.h"
  },
  {
   "alignment" : 8,
   "linker_set_key" : "_ZTIPKDi",
   "name" : "const char32_t *",
   "referenced_type" : "_ZTIKDi",
   "size" : 8,
   "source_file" : "system/core/libutils/binder/include/utils/String8.h"
  },
  {
   "alignment" : 8,
   "linker_set_key" : "_ZTIPKDs",
   "name" : "const char16_t *",
   "referenced_type" : "_ZTIKDs",
   "size" : 8,
   "source_file" : "system/core/libutils/binder/include/utils/String16.h"
  },
  {
   "alignment" : 8,
   "linker_set_key" : "_ZTIPKN7android10VectorImplE",
   "name" : "const android::VectorImpl *",
   "referenced_type" : "_ZTIKN7android10VectorImplE",
   "size" : 8,
   "source_file" : "system/core/libutils/include/utils/VectorImpl.h"
  },
  {
   "alignment" : 8,
   "linker_set_key" : "_ZTIPKN7android10VectorImplE",
   "name" : "const android::VectorImpl *",
   "referenced_type" : "_ZTIKN7android10VectorImplE#ODR:out/soong/.intermediates/system/core/libutils/binder/libutils_binder/android_vendor_arm64_armv8-a_cortex-a53_static_afdo-libutils/obj/system/core/libutils/binder/RefBase.sdump",
   "self_type" : "_ZTIPKN7android10VectorImplE#ODR:out/soong/.intermediates/system/core/libutils/binder/libutils_binder/android_vendor_arm64_armv8-a_cortex-a53_static_afdo-libutils/obj/system/core/libutils/binder/RefBase.sdump",
   "size" : 8,
   "source_file" : "system/core/libutils/binder/include/utils/VectorImpl.h"
  },
  {
   "alignment" : 8,
   "linker_set_key" : "_ZTIPKN7android12LightRefBaseINS_12NativeHandleEEE",
   "name" : "const android::LightRefBase<android::NativeHandle> *",
   "referenced_type" : "_ZTIKN7android12LightRefBaseINS_12NativeHandleEEE",
   "size" : 8,
   "source_file" : "system/core/libutils/include/utils/LightRefBase.h"
  },
  {
   "alignment" : 8,
   "linker_set_key" : "_ZTIPKN7android12NativeHandleE",
   "name" : "const android::NativeHandle *",
   "referenced_type" : "_ZTIKN7android12NativeHandleE",
   "size" : 8,
   "source_file" : "system/core/libutils/include/utils/NativeHandle.h"
  },
  {
   "alignment" : 8,
   "linker_set_key" : "_ZTIPKN7android16SortedVectorImplE",
   "name" : "const android::SortedVectorImpl *",
   "referenced_type" : "_ZTIKN7android16SortedVectorImplE",
   "size" : 8,
   "source_file" : "system/core/libutils/binder/include/utils/VectorImpl.h"
  },
  {
   "alignment" : 8,
   "linker_set_key" : "_ZTIPKN7android28sysprop_change_callback_infoE",
   "name" : "const android::sysprop_change_callback_info *",
   "referenced_type" : "_ZTIKN7android28sysprop_change_callback_infoE",
   "size" : 8,
   "source_file" : "system/core/libutils/include/utils/TypeHelpers.h"
  },
  {
   "alignment" : 8,
   "linker_set_key" : "_ZTIPKN7android2spINS_14LooperCallbackEEE",
   "name" : "const android::sp<android::LooperCallback> *",
   "referenced_type" : "_ZTIKN7android2spINS_14LooperCallbackEEE",
   "size" : 8,
   "source_file" : "system/core/libutils/include/utils/StrongPointer.h"
  },
  {
   "alignment" : 8,
   "linker_set_key" : "_ZTIPKN7android2spINS_14MessageHandlerEEE",
   "name" : "const android::sp<android::MessageHandler> *",
   "referenced_type" : "_ZTIKN7android2spINS_14MessageHandlerEEE",
   "size" : 8,
   "source_file" : "system/core/libutils/include/utils/StrongPointer.h"
  },
  {
   "alignment" : 8,
   "linker_set_key" : "_ZTIPKN7android2spINS_6LooperEEE",
   "name" : "const android::sp<android::Looper> *",
   "referenced_type" : "_ZTIKN7android2spINS_6LooperEEE",
   "size" : 8,
   "source_file" : "system/core/libutils/include/utils/StrongPointer.h"
  },
  {
   "alignment" : 8,
   "linker_set_key" : "_ZTIPKN7android2spINS_6ThreadEEE",
   "name" : "const android::sp<android::Thread> *",
   "referenced_type" : "_ZTIKN7android2spINS_6ThreadEEE",
   "size" : 8,
   "source_file" : "system/core/libutils/include/utils/StrongPointer.h"
  },
  {
   "alignment" : 8,
   "linker_set_key" : "_ZTIPKN7android2wpINS_14MessageHandlerEEE",
   "name" : "const android::wp<android::MessageHandler> *",
   "referenced_type" : "_ZTIKN7android2wpINS_14MessageHandlerEEE",
   "size" : 8,
   "source_file" : "system/core/libutils/include/utils/RefBase.h"
  },
  {
   "alignment" : 8,
   "linker_set_key" : "_ZTIPKN7android2wpINS_6ThreadEEE",
   "name" : "const android::wp<android::Thread> *",
   "referenced_type" : "_ZTIKN7android2wpINS_6ThreadEEE",
   "size" : 8,
   "source_file" : "system/core/libutils/include/utils/RefBase.h"
  },
  {
   "alignment" : 8,
   "linker_set_key" : "_ZTIPKN7android4base11borrowed_fdE",
   "name" : "const android::base::borrowed_fd *",
   "referenced_type" : "_ZTIKN7android4base11borrowed_fdE",
   "size" : 8,
   "source_file" : "system/libbase/include/android-base/unique_fd.h"
  },
  {
   "alignment" : 8,
   "linker_set_key" : "_ZTIPKN7android4base14unique_fd_implINS0_13DefaultCloserEEE",
   "name" : "const android::base::unique_fd_impl<android::base::DefaultCloser> *",
   "referenced_type" : "_ZTIKN7android4base14unique_fd_implINS0_13DefaultCloserEEE",
   "size" : 8,
   "source_file" : "system/libbase/include/android-base/unique_fd.h"
  },
  {
   "alignment" : 8,
   "linker_set_key" : "_ZTIPKN7android6Looper15MessageEnvelopeE",
   "name" : "const android::Looper::MessageEnvelope *",
   "referenced_type" : "_ZTIKN7android6Looper15MessageEnvelopeE",
   "size" : 8,
   "source_file" : "system/core/libutils/include/utils/TypeHelpers.h"
  },
  {
   "alignment" : 8,
   "linker_set_key" : "_ZTIPKN7android6Looper7RequestE",
   "name" : "const android::Looper::Request *",
   "referenced_type" : "_ZTIKN7android6Looper7RequestE",
   "size" : 8,
   "source_file" : "system/core/libutils/include/utils/Looper.h"
  },
  {
   "alignment" : 8,
   "linker_set_key" : "_ZTIPKN7android6Looper8ResponseE",
   "name" : "const android::Looper::Response *",
   "referenced_type" : "_ZTIKN7android6Looper8ResponseE",
   "size" : 8,
   "source_file" : "system/core/libutils/include/utils/TypeHelpers.h"
  },
  {
   "alignment" : 8,
   "linker_set_key" : "_ZTIPKN7android6LooperE",
   "name" : "const android::Looper *",
   "referenced_type" : "_ZTIKN7android6LooperE",
   "size" : 8,
   "source_file" : "system/core/libutils/include/utils/Looper.h"
  },
  {
   "alignment" : 8,
   "linker_set_key" : "_ZTIPKN7android6ThreadE",
   "name" : "const android::Thread *",
   "referenced_type" : "_ZTIKN7android6ThreadE",
   "size" : 8,
   "source_file" : "system/core/libutils/include/utils/Thread.h"
  },
  {
   "alignment" : 8,
   "linker_set_key" : "_ZTIPKN7android6VectorINS_28sysprop_change_callback_infoEEE",
   "name" : "const android::Vector<android::sysprop_change_callback_info> *",
   "referenced_type" : "_ZTIKN7android6VectorINS_28sysprop_change_callback_infoEEE",
   "size" : 8,
   "source_file" : "system/core/libutils/include/utils/Vector.h"
  },
  {
   "alignment" : 8,
   "linker_set_key" : "_ZTIPKN7android6VectorINS_6Looper15MessageEnvelopeEEE",
   "name" : "const android::Vector<android::Looper::MessageEnvelope> *",
   "referenced_type" : "_ZTIKN7android6VectorINS_6Looper15MessageEnvelopeEEE",
   "size" : 8,
   "source_file" : "system/core/libutils/include/utils/Vector.h"
  },
  {
   "alignment" : 8,
   "linker_set_key" : "_ZTIPKN7android6VectorINS_6Looper8ResponseEEE",
   "name" : "const android::Vector<android::Looper::Response> *",
   "referenced_type" : "_ZTIKN7android6VectorINS_6Looper8ResponseEEE",
   "size" : 8,
   "source_file" : "system/core/libutils/include/utils/Vector.h"
  },
  {
   "alignment" : 8,
   "linker_set_key" : "_ZTIPKN7android6VectorINS_7String8EEE",
   "name" : "const android::Vector<android::String8> *",
   "referenced_type" : "_ZTIKN7android6VectorINS_7String8EEE",
   "size" : 8,
   "source_file" : "system/core/libutils/binder/include/utils/Vector.h"
  },
  {
   "alignment" : 8,
   "linker_set_key" : "_ZTIPKN7android7FileMapE",
   "name" : "const android::FileMap *",
   "referenced_type" : "_ZTIKN7android7FileMapE",
   "size" : 8,
   "source_file" : "system/core/libutils/include/utils/FileMap.h"
  },
  {
   "alignment" : 8,
   "linker_set_key" : "_ZTIPKN7android7RefBase12weakref_typeE",
   "name" : "const android::RefBase::weakref_type *",
   "referenced_type" : "_ZTIKN7android7RefBase12weakref_typeE",
   "size" : 8,
   "source_file" : "system/core/libutils/binder/include/utils/RefBase.h"
  },
  {
   "alignment" : 8,
   "linker_set_key" : "_ZTIPKN7android7RefBaseE",
   "name" : "const android::RefBase *",
   "referenced_type" : "_ZTIKN7android7RefBaseE",
   "size" : 8,
   "source_file" : "system/core/libutils/include/utils/RefBase.h"
  },
  {
   "alignment" : 8,
   "linker_set_key" : "_ZTIPKN7android7RefBaseE",
   "name" : "const android::RefBase *",
   "referenced_type" : "_ZTIKN7android7RefBaseE#ODR:out/soong/.intermediates/system/core/libutils/binder/libutils_binder/android_vendor_arm64_armv8-a_cortex-a53_static_afdo-libutils/obj/system/core/libutils/binder/RefBase.sdump",
   "self_type" : "_ZTIPKN7android7RefBaseE#ODR:out/soong/.intermediates/system/core/libutils/binder/libutils_binder/android_vendor_arm64_armv8-a_cortex-a53_static_afdo-libutils/obj/system/core/libutils/binder/RefBase.sdump",
   "size" : 8,
   "source_file" : "system/core/libutils/binder/include/utils/RefBase.h"
  },
  {
   "alignment" : 8,
   "linker_set_key" : "_ZTIPKN7android7String8E",
   "name" : "const android::String8 *",
   "referenced_type" : "_ZTIKN7android7String8E",
   "size" : 8,
   "source_file" : "system/core/libutils/include/utils/String8.h"
  },
  {
   "alignment" : 8,
   "linker_set_key" : "_ZTIPKN7android7String8E",
   "name" : "const android::String8 *",
   "referenced_type" : "_ZTIKN7android7String8E#ODR:out/soong/.intermediates/system/core/libutils/binder/libutils_binder/android_vendor_arm64_armv8-a_cortex-a53_static_afdo-libutils/obj/system/core/libutils/binder/RefBase.sdump",
   "self_type" : "_ZTIPKN7android7String8E#ODR:out/soong/.intermediates/system/core/libutils/binder/libutils_binder/android_vendor_arm64_armv8-a_cortex-a53_static_afdo-libutils/obj/system/core/libutils/binder/RefBase.sdump",
   "size" : 8,
   "source_file" : "system/core/libutils/binder/include/utils/String8.h"
  },
  {
   "alignment" : 8,
   "linker_set_key" : "_ZTIPKN7android8String16E",
   "name" : "const android::String16 *",
   "referenced_type" : "_ZTIKN7android8String16E",
   "size" : 8,
   "source_file" : "system/core/libutils/binder/include/utils/String16.h"
  },
  {
   "alignment" : 8,
   "linker_set_key" : "_ZTIPKN7android9StopWatchE",
   "name" : "const android::StopWatch *",
   "referenced_type" : "_ZTIKN7android9StopWatchE",
   "size" : 8,
   "source_file" : "system/core/libutils/include/utils/StopWatch.h"
  },
  {
   "alignment" : 8,
   "linker_set_key" : "_ZTIPKN7android9TokenizerE",
   "name" : "const android::Tokenizer *",
   "referenced_type" : "_ZTIKN7android9TokenizerE",
   "size" : 8,
   "source_file" : "system/core/libutils/include/utils/Tokenizer.h"
  },
  {
   "alignment" : 8,
   "linker_set_key" : "_ZTIPKc",
   "name" : "const char *",
   "referenced_type" : "_ZTIKc",
   "size" : 8,
   "source_file" : "system/core/libutils/include/utils/FileMap.h"
  },
  {
   "alignment" : 8,
   "linker_set_key" : "_ZTIPKh",
   "name" : "const unsigned char *",
   "referenced_type" : "_ZTIKh",
   "size" : 8,
   "source_file" : "system/core/libutils/include/utils/JenkinsHash.h"
  },
  {
   "alignment" : 8,
   "linker_set_key" : "_ZTIPKt",
   "name" : "const unsigned short *",
   "referenced_type" : "_ZTIKt",
   "size" : 8,
   "source_file" : "system/core/libutils/include/utils/JenkinsHash.h"
  },
  {
   "alignment" : 8,
   "linker_set_key" : "_ZTIPKv",
   "name" : "const void *",
   "referenced_type" : "_ZTIKv",
   "size" : 8,
   "source_file" : "system/core/libutils/include/utils/LightRefBase.h"
  },
  {
   "alignment" : 8,
   "linker_set_key" : "_ZTIPN7android10LogPrinterE",
   "name" : "android::LogPrinter *",
   "referenced_type" : "_ZTIN7android10LogPrinterE",
   "size" : 8,
   "source_file" : "system/core/libutils/include/utils/Printer.h"
  },
  {
   "alignment" : 8,
   "linker_set_key" : "_ZTIPN7android10VectorImplE",
   "name" : "android::VectorImpl *",
   "referenced_type" : "_ZTIN7android10VectorImplE#ODR:out/soong/.intermediates/system/core/libutils/binder/libutils_binder/android_vendor_arm64_armv8-a_cortex-a53_static_afdo-libutils/obj/system/core/libutils/binder/RefBase.sdump",
   "size" : 8,
   "source_file" : "system/core/libutils/binder/include/utils/VectorImpl.h"
  },
  {
   "alignment" : 8,
   "linker_set_key" : "_ZTIPN7android11ScopedTraceE",
   "name" : "android::ScopedTrace *",
   "referenced_type" : "_ZTIN7android11ScopedTraceE",
   "size" : 8,
   "source_file" : "system/core/libutils/include/utils/Trace.h"
  },
  {
   "alignment" : 8,
   "linker_set_key" : "_ZTIPN7android12LightRefBaseINS_12NativeHandleEEE",
   "name" : "android::LightRefBase<android::NativeHandle> *",
   "referenced_type" : "_ZTIN7android12LightRefBaseINS_12NativeHandleEEE",
   "size" : 8,
   "source_file" : "system/core/libutils/include/utils/LightRefBase.h"
  },
  {
   "alignment" : 8,
   "linker_set_key" : "_ZTIPN7android12NativeHandleE",
   "name" : "android::NativeHandle *",
   "referenced_type" : "_ZTIN7android12NativeHandleE",
   "size" : 8,
   "source_file" : "system/core/libutils/include/utils/StrongPointer.h"
  },
  {
   "alignment" : 8,
   "linker_set_key" : "_ZTIPN7android13PrefixPrinterE",
   "name" : "android::PrefixPrinter *",
   "referenced_type" : "_ZTIN7android13PrefixPrinterE",
   "size" : 8,
   "source_file" : "system/core/libutils/include/utils/Printer.h"
  },
  {
   "alignment" : 8,
   "linker_set_key" : "_ZTIPN7android14LooperCallbackE",
   "name" : "android::LooperCallback *",
   "referenced_type" : "_ZTIN7android14LooperCallbackE",
   "size" : 8,
   "source_file" : "system/core/libutils/include/utils/StrongPointer.h"
  },
  {
   "alignment" : 8,
   "linker_set_key" : "_ZTIPN7android14MessageHandlerE",
   "name" : "android::MessageHandler *",
   "referenced_type" : "_ZTIN7android14MessageHandlerE",
   "size" : 8,
   "source_file" : "system/core/libutils/include/utils/RefBase.h"
  },
  {
   "alignment" : 8,
   "linker_set_key" : "_ZTIPN7android14StaticString16ILm1EEE",
   "name" : "android::StaticString16<1> *",
   "referenced_type" : "_ZTIN7android14StaticString16ILm1EEE",
   "size" : 8,
   "source_file" : "system/core/libutils/binder/include/utils/String16.h"
  },
  {
   "alignment" : 8,
   "linker_set_key" : "_ZTIPN7android14String8PrinterE",
   "name" : "android::String8Printer *",
   "referenced_type" : "_ZTIN7android14String8PrinterE",
   "size" : 8,
   "source_file" : "system/core/libutils/include/utils/Printer.h"
  },
  {
   "alignment" : 8,
   "linker_set_key" : "_ZTIPN7android16ReferenceRenamerE",
   "name" : "android::ReferenceRenamer *",
   "referenced_type" : "_ZTIN7android16ReferenceRenamerE",
   "size" : 8,
   "source_file" : "system/core/libutils/include/utils/RefBase.h"
  },
  {
   "alignment" : 8,
   "linker_set_key" : "_ZTIPN7android16ReferenceRenamerE",
   "name" : "android::ReferenceRenamer *",
   "referenced_type" : "_ZTIN7android16ReferenceRenamerE#ODR:out/soong/.intermediates/system/core/libutils/binder/libutils_binder/android_vendor_arm64_armv8-a_cortex-a53_static_afdo-libutils/obj/system/core/libutils/binder/RefBase.sdump",
   "self_type" : "_ZTIPN7android16ReferenceRenamerE#ODR:out/soong/.intermediates/system/core/libutils/binder/libutils_binder/android_vendor_arm64_armv8-a_cortex-a53_static_afdo-libutils/obj/system/core/libutils/binder/RefBase.sdump",
   "size" : 8,
   "source_file" : "system/core/libutils/binder/include/utils/RefBase.h"
  },
  {
   "alignment" : 8,
   "linker_set_key" : "_ZTIPN7android16SortedVectorImplE",
   "name" : "android::SortedVectorImpl *",
   "referenced_type" : "_ZTIN7android16SortedVectorImplE#ODR:out/soong/.intermediates/system/core/libutils/binder/libutils_binder/android_vendor_arm64_armv8-a_cortex-a53_static_afdo-libutils/obj/system/core/libutils/binder/RefBase.sdump",
   "size" : 8,
   "source_file" : "system/core/libutils/binder/include/utils/VectorImpl.h"
  },
  {
   "alignment" : 8,
   "linker_set_key" : "_ZTIPN7android18WeakMessageHandlerE",
   "name" : "android::WeakMessageHandler *",
   "referenced_type" : "_ZTIN7android18WeakMessageHandlerE",
   "size" : 8,
   "source_file" : "system/core/libutils/include/utils/Looper.h"
  },
  {
   "alignment" : 8,
   "linker_set_key" : "_ZTIPN7android19VirtualLightRefBaseE",
   "name" : "android::VirtualLightRefBase *",
   "referenced_type" : "_ZTIN7android19VirtualLightRefBaseE",
   "size" : 8,
   "source_file" : "system/core/libutils/include/utils/LightRefBase.h"
  },
  {
   "alignment" : 8,
   "linker_set_key" : "_ZTIPN7android19VirtualLightRefBaseE",
   "name" : "android::VirtualLightRefBase *",
   "referenced_type" : "_ZTIN7android19VirtualLightRefBaseE#ODR:out/soong/.intermediates/system/core/libutils/binder/libutils_binder/android_vendor_arm64_armv8-a_cortex-a53_static_afdo-libutils/obj/system/core/libutils/binder/RefBase.sdump",
   "self_type" : "_ZTIPN7android19VirtualLightRefBaseE#ODR:out/soong/.intermediates/system/core/libutils/binder/libutils_binder/android_vendor_arm64_armv8-a_cortex-a53_static_afdo-libutils/obj/system/core/libutils/binder/RefBase.sdump",
   "size" : 8,
   "source_file" : "system/core/libutils/binder/include/utils/LightRefBase.h"
  },
  {
   "alignment" : 8,
   "linker_set_key" : "_ZTIPN7android20SimpleLooperCallbackE",
   "name" : "android::SimpleLooperCallback *",
   "referenced_type" : "_ZTIN7android20SimpleLooperCallbackE",
   "size" : 8,
   "source_file" : "system/core/libutils/include/utils/StrongPointer.h"
  },
  {
   "alignment" : 8,
   "linker_set_key" : "_ZTIPN7android28sysprop_change_callback_infoE",
   "name" : "android::sysprop_change_callback_info *",
   "referenced_type" : "_ZTIN7android28sysprop_change_callback_infoE",
   "size" : 8,
   "source_file" : "system/core/libutils/include/utils/TypeHelpers.h"
  },
  {
   "alignment" : 8,
   "linker_set_key" : "_ZTIPN7android2spINS_12NativeHandleEEE",
   "name" : "android::sp<android::NativeHandle> *",
   "referenced_type" : "_ZTIN7android2spINS_12NativeHandleEEE",
   "size" : 8,
   "source_file" : "system/core/libutils/include/utils/StrongPointer.h"
  },
  {
   "alignment" : 8,
   "linker_set_key" : "_ZTIPN7android2spINS_14LooperCallbackEEE",
   "name" : "android::sp<android::LooperCallback> *",
   "referenced_type" : "_ZTIN7android2spINS_14LooperCallbackEEE",
   "size" : 8,
   "source_file" : "system/core/libutils/include/utils/StrongPointer.h"
  },
  {
   "alignment" : 8,
   "linker_set_key" : "_ZTIPN7android2spINS_14MessageHandlerEEE",
   "name" : "android::sp<android::MessageHandler> *",
   "referenced_type" : "_ZTIN7android2spINS_14MessageHandlerEEE",
   "size" : 8,
   "source_file" : "system/core/libutils/include/utils/StrongPointer.h"
  },
  {
   "alignment" : 8,
   "linker_set_key" : "_ZTIPN7android2spINS_20SimpleLooperCallbackEEE",
   "name" : "android::sp<android::SimpleLooperCallback> *",
   "referenced_type" : "_ZTIN7android2spINS_20SimpleLooperCallbackEEE",
   "size" : 8,
   "source_file" : "system/core/libutils/include/utils/StrongPointer.h"
  },
  {
   "alignment" : 8,
   "linker_set_key" : "_ZTIPN7android2spINS_6LooperEEE",
   "name" : "android::sp<android::Looper> *",
   "referenced_type" : "_ZTIN7android2spINS_6LooperEEE",
   "size" : 8,
   "source_file" : "system/core/libutils/include/utils/StrongPointer.h"
  },
  {
   "alignment" : 8,
   "linker_set_key" : "_ZTIPN7android2spINS_6ThreadEEE",
   "name" : "android::sp<android::Thread> *",
   "referenced_type" : "_ZTIN7android2spINS_6ThreadEEE",
   "size" : 8,
   "source_file" : "system/core/libutils/include/utils/StrongPointer.h"
  },
  {
   "alignment" : 8,
   "linker_set_key" : "_ZTIPN7android2wpINS_14MessageHandlerEEE",
   "name" : "android::wp<android::MessageHandler> *",
   "referenced_type" : "_ZTIN7android2wpINS_14MessageHandlerEEE",
   "size" : 8,
   "source_file" : "system/core/libutils/include/utils/RefBase.h"
  },
  {
   "alignment" : 8,
   "linker_set_key" : "_ZTIPN7android2wpINS_6ThreadEEE",
   "name" : "android::wp<android::Thread> *",
   "referenced_type" : "_ZTIN7android2wpINS_6ThreadEEE",
   "size" : 8,
   "source_file" : "system/core/libutils/include/utils/RefBase.h"
  },
  {
   "alignment" : 8,
   "linker_set_key" : "_ZTIPN7android4base11borrowed_fdE",
   "name" : "android::base::borrowed_fd *",
   "referenced_type" : "_ZTIN7android4base11borrowed_fdE",
   "size" : 8,
   "source_file" : "system/libbase/include/android-base/unique_fd.h"
  },
  {
   "alignment" : 8,
   "linker_set_key" : "_ZTIPN7android4base14unique_fd_implINS0_13DefaultCloserEEE",
   "name" : "android::base::unique_fd_impl<android::base::DefaultCloser> *",
   "referenced_type" : "_ZTIN7android4base14unique_fd_implINS0_13DefaultCloserEEE",
   "size" : 8,
   "source_file" : "system/libbase/include/android-base/unique_fd.h"
  },
  {
   "alignment" : 8,
   "linker_set_key" : "_ZTIPN7android5Mutex8AutolockE",
   "name" : "android::Mutex::Autolock *",
   "referenced_type" : "_ZTIN7android5Mutex8AutolockE",
   "size" : 8,
   "source_file" : "system/core/libutils/include/utils/Mutex.h"
  },
  {
   "alignment" : 8,
   "linker_set_key" : "_ZTIPN7android5MutexE",
   "name" : "android::Mutex *",
   "referenced_type" : "_ZTIN7android5MutexE",
   "size" : 8,
   "source_file" : "system/core/libutils/include/utils/Mutex.h"
  },
  {
   "alignment" : 8,
   "linker_set_key" : "_ZTIPN7android6Looper15MessageEnvelopeE",
   "name" : "android::Looper::MessageEnvelope *",
   "referenced_type" : "_ZTIN7android6Looper15MessageEnvelopeE",
   "size" : 8,
   "source_file" : "system/core/libutils/include/utils/TypeHelpers.h"
  },
  {
   "alignment" : 8,
   "linker_set_key" : "_ZTIPN7android6Looper8ResponseE",
   "name" : "android::Looper::Response *",
   "referenced_type" : "_ZTIN7android6Looper8ResponseE",
   "size" : 8,
   "source_file" : "system/core/libutils/include/utils/TypeHelpers.h"
  },
  {
   "alignment" : 8,
   "linker_set_key" : "_ZTIPN7android6LooperE",
   "name" : "android::Looper *",
   "referenced_type" : "_ZTIN7android6LooperE",
   "size" : 8,
   "source_file" : "system/core/libutils/include/utils/StrongPointer.h"
  },
  {
   "alignment" : 8,
   "linker_set_key" : "_ZTIPN7android6RWLock9AutoRLockE",
   "name" : "android::RWLock::AutoRLock *",
   "referenced_type" : "_ZTIN7android6RWLock9AutoRLockE",
   "size" : 8,
   "source_file" : "system/core/libutils/include/utils/RWLock.h"
  },
  {
   "alignment" : 8,
   "linker_set_key" : "_ZTIPN7android6RWLock9AutoWLockE",
   "name" : "android::RWLock::AutoWLock *",
   "referenced_type" : "_ZTIN7android6RWLock9AutoWLockE",
   "size" : 8,
   "source_file" : "system/core/libutils/include/utils/RWLock.h"
  },
  {
   "alignment" : 8,
   "linker_set_key" : "_ZTIPN7android6RWLockE",
   "name" : "android::RWLock *",
   "referenced_type" : "_ZTIN7android6RWLockE",
   "size" : 8,
   "source_file" : "system/core/libutils/include/utils/RWLock.h"
  },
  {
   "alignment" : 8,
   "linker_set_key" : "_ZTIPN7android6ThreadE",
   "name" : "android::Thread *",
   "referenced_type" : "_ZTIN7android6ThreadE",
   "size" : 8,
   "source_file" : "system/core/libutils/include/utils/RefBase.h"
  },
  {
   "alignment" : 8,
   "linker_set_key" : "_ZTIPN7android6VectorINS_28sysprop_change_callback_infoEEE",
   "name" : "android::Vector<android::sysprop_change_callback_info> *",
   "referenced_type" : "_ZTIN7android6VectorINS_28sysprop_change_callback_infoEEE",
   "size" : 8,
   "source_file" : "system/core/libutils/include/utils/Vector.h"
  },
  {
   "alignment" : 8,
   "linker_set_key" : "_ZTIPN7android6VectorINS_6Looper15MessageEnvelopeEEE",
   "name" : "android::Vector<android::Looper::MessageEnvelope> *",
   "referenced_type" : "_ZTIN7android6VectorINS_6Looper15MessageEnvelopeEEE",
   "size" : 8,
   "source_file" : "system/core/libutils/include/utils/Vector.h"
  },
  {
   "alignment" : 8,
   "linker_set_key" : "_ZTIPN7android6VectorINS_6Looper8ResponseEEE",
   "name" : "android::Vector<android::Looper::Response> *",
   "referenced_type" : "_ZTIN7android6VectorINS_6Looper8ResponseEEE",
   "size" : 8,
   "source_file" : "system/core/libutils/include/utils/Vector.h"
  },
  {
   "alignment" : 8,
   "linker_set_key" : "_ZTIPN7android6VectorINS_7String8EEE",
   "name" : "android::Vector<android::String8> *",
   "referenced_type" : "_ZTIN7android6VectorINS_7String8EEE",
   "size" : 8,
   "source_file" : "system/core/libutils/binder/include/utils/Vector.h"
  },
  {
   "alignment" : 8,
   "linker_set_key" : "_ZTIPN7android7FileMapE",
   "name" : "android::FileMap *",
   "referenced_type" : "_ZTIN7android7FileMapE",
   "size" : 8,
   "source_file" : "system/core/libutils/include/utils/FileMap.h"
  },
  {
   "alignment" : 8,
   "linker_set_key" : "_ZTIPN7android7MessageE",
   "name" : "android::Message *",
   "referenced_type" : "_ZTIN7android7MessageE",
   "size" : 8,
   "source_file" : "system/core/libutils/include/utils/Looper.h"
  },
  {
   "alignment" : 8,
   "linker_set_key" : "_ZTIPN7android7PrinterE",
   "name" : "android::Printer *",
   "referenced_type" : "_ZTIN7android7PrinterE",
   "size" : 8,
   "source_file" : "system/core/libutils/include/utils/Printer.h"
  },
  {
   "alignment" : 8,
   "linker_set_key" : "_ZTIPN7android7RefBase12weakref_implE",
   "name" : "android::RefBase::weakref_impl *",
   "referenced_type" : "_ZTIN7android7RefBase12weakref_implE",
   "size" : 8,
   "source_file" : "system/core/libutils/include/utils/RefBase.h"
  },
  {
   "alignment" : 8,
   "linker_set_key" : "_ZTIPN7android7RefBase12weakref_typeE",
   "name" : "android::RefBase::weakref_type *",
   "referenced_type" : "_ZTIN7android7RefBase12weakref_typeE",
   "size" : 8,
   "source_file" : "system/core/libutils/include/utils/RefBase.h"
  },
  {
   "alignment" : 8,
   "linker_set_key" : "_ZTIPN7android7RefBase12weakref_typeE",
   "name" : "android::RefBase::weakref_type *",
   "referenced_type" : "_ZTIN7android7RefBase12weakref_typeE#ODR:out/soong/.intermediates/system/core/libutils/binder/libutils_binder/android_vendor_arm64_armv8-a_cortex-a53_static_afdo-libutils/obj/system/core/libutils/binder/RefBase.sdump",
   "self_type" : "_ZTIPN7android7RefBase12weakref_typeE#ODR:out/soong/.intermediates/system/core/libutils/binder/libutils_binder/android_vendor_arm64_armv8-a_cortex-a53_static_afdo-libutils/obj/system/core/libutils/binder/RefBase.sdump",
   "size" : 8,
   "source_file" : "system/core/libutils/binder/include/utils/RefBase.h"
  },
  {
   "alignment" : 8,
   "linker_set_key" : "_ZTIPN7android7RefBaseE",
   "name" : "android::RefBase *",
   "referenced_type" : "_ZTIN7android7RefBaseE",
   "size" : 8,
   "source_file" : "system/core/libutils/include/utils/RefBase.h"
  },
  {
   "alignment" : 8,
   "linker_set_key" : "_ZTIPN7android7RefBaseE",
   "name" : "android::RefBase *",
   "referenced_type" : "_ZTIN7android7RefBaseE#ODR:out/soong/.intermediates/system/core/libutils/binder/libutils_binder/android_vendor_arm64_armv8-a_cortex-a53_static_afdo-libutils/obj/system/core/libutils/binder/RefBase.sdump",
   "self_type" : "_ZTIPN7android7RefBaseE#ODR:out/soong/.intermediates/system/core/libutils/binder/libutils_binder/android_vendor_arm64_armv8-a_cortex-a53_static_afdo-libutils/obj/system/core/libutils/binder/RefBase.sdump",
   "size" : 8,
   "source_file" : "system/core/libutils/binder/include/utils/RefBase.h"
  },
  {
   "alignment" : 8,
   "linker_set_key" : "_ZTIPN7android7String8E",
   "name" : "android::String8 *",
   "referenced_type" : "_ZTIN7android7String8E",
   "size" : 8,
   "source_file" : "system/core/libutils/include/utils/Printer.h"
  },
  {
   "alignment" : 8,
   "linker_set_key" : "_ZTIPN7android7String8E",
   "name" : "android::String8 *",
   "referenced_type" : "_ZTIN7android7String8E#ODR:out/soong/.intermediates/system/core/libutils/binder/libutils_binder/android_vendor_arm64_armv8-a_cortex-a53_static_afdo-libutils/obj/system/core/libutils/binder/RefBase.sdump",
   "self_type" : "_ZTIPN7android7String8E#ODR:out/soong/.intermediates/system/core/libutils/binder/libutils_binder/android_vendor_arm64_armv8-a_cortex-a53_static_afdo-libutils/obj/system/core/libutils/binder/RefBase.sdump",
   "size" : 8,
   "source_file" : "system/core/libutils/binder/include/utils/String8.h"
  },
  {
   "alignment" : 8,
   "linker_set_key" : "_ZTIPN7android8String1610StaticDataILm1EEE",
   "name" : "android::String16::StaticData<1> *",
   "referenced_type" : "_ZTIN7android8String1610StaticDataILm1EEE",
   "size" : 8,
   "source_file" : "system/core/libutils/binder/include/utils/String16.h"
  },
  {
   "alignment" : 8,
   "linker_set_key" : "_ZTIPN7android8String16E",
   "name" : "android::String16 *",
   "referenced_type" : "_ZTIN7android8String16E",
   "size" : 8,
   "source_file" : "system/core/libutils/binder/include/utils/String16.h"
  },
  {
   "alignment" : 8,
   "linker_set_key" : "_ZTIPN7android9ConditionE",
   "name" : "android::Condition *",
   "referenced_type" : "_ZTIN7android9ConditionE",
   "size" : 8,
   "source_file" : "system/core/libutils/include/utils/Condition.h"
  },
  {
   "alignment" : 8,
   "linker_set_key" : "_ZTIPN7android9FdPrinterE",
   "name" : "android::FdPrinter *",
   "referenced_type" : "_ZTIN7android9FdPrinterE",
   "size" : 8,
   "source_file" : "system/core/libutils/include/utils/Printer.h"
  },
  {
   "alignment" : 8,
   "linker_set_key" : "_ZTIPN7android9StopWatchE",
   "name" : "android::StopWatch *",
   "referenced_type" : "_ZTIN7android9StopWatchE",
   "size" : 8,
   "source_file" : "system/core/libutils/include/utils/StopWatch.h"
  },
  {
   "alignment" : 8,
   "linker_set_key" : "_ZTIPN7android9TokenizerE",
   "name" : "android::Tokenizer *",
   "referenced_type" : "_ZTIN7android9TokenizerE",
   "size" : 8,
   "source_file" : "system/core/libutils/include/utils/Tokenizer.h"
  },
  {
   "alignment" : 8,
   "linker_set_key" : "_ZTIPPN7android9TokenizerE",
   "name" : "android::Tokenizer **",
   "referenced_type" : "_ZTIPN7android9TokenizerE",
   "size" : 8,
   "source_file" : "system/core/libutils/include/utils/Tokenizer.h"
  },
  {
   "alignment" : 8,
   "linker_set_key" : "_ZTIPPv",
   "name" : "void **",
   "referenced_type" : "_ZTIPv",
   "size" : 8,
   "source_file" : "system/core/libutils/include/utils/AndroidThreads.h"
  },
  {
   "alignment" : 8,
   "linker_set_key" : "_ZTIPc",
   "name" : "char *",
   "referenced_type" : "_ZTIc",
   "size" : 8,
   "source_file" : "system/core/libutils/include/utils/FileMap.h"
  },
  {
   "alignment" : 8,
   "linker_set_key" : "_ZTIPh",
   "name" : "unsigned char *",
   "referenced_type" : "_ZTIh",
   "size" : 8,
   "source_file" : "system/core/libsystem/include/system/graphics.h"
  },
  {
   "alignment" : 8,
   "linker_set_key" : "_ZTIPi",
   "name" : "int *",
   "referenced_type" : "_ZTIi",
   "size" : 8,
   "source_file" : "system/core/libutils/include/utils/Looper.h"
  },
  {
   "alignment" : 8,
   "linker_set_key" : "_ZTIPm",
   "name" : "unsigned long *",
   "referenced_type" : "_ZTIm",
   "size" : 8,
   "source_file" : "system/core/libutils/binder/include/utils/Unicode.h"
  },
  {
   "alignment" : 8,
   "linker_set_key" : "_ZTIPv",
   "name" : "void *",
   "referenced_type" : "_ZTIv",
   "size" : 8,
   "source_file" : "system/core/libutils/include/utils/FileMap.h"
  }
 ],
 "qualified_types" :
 [
  {
   "alignment" : 2,
   "is_const" : true,
   "linker_set_key" : "_ZTIA1_KDs",
   "name" : "const char16_t[1]",
   "referenced_type" : "_ZTIA1_Ds",
   "size" : 2,
   "source_file" : "system/core/libutils/binder/include/utils/String16.h"
  },
  {
   "alignment" : 4,
   "is_const" : true,
   "linker_set_key" : "_ZTIK13native_handle",
   "name" : "const native_handle",
   "referenced_type" : "_ZTI13native_handle",
   "size" : 12,
   "source_file" : "system/core/libutils/include/utils/NativeHandle.h"
  },
  {
   "alignment" : 4,
   "is_const" : true,
   "linker_set_key" : "_ZTIK7log_msg",
   "name" : "const log_msg",
   "referenced_type" : "_ZTI7log_msg",
   "size" : 5124,
   "source_file" : "system/logging/liblog/include_vndk/log/log_read.h"
  },
  {
   "alignment" : 4,
   "is_const" : true,
   "linker_set_key" : "_ZTIKDi",
   "name" : "const char32_t",
   "referenced_type" : "_ZTIDi",
   "size" : 4,
   "source_file" : "system/core/libutils/binder/include/utils/String8.h"
  },
  {
   "alignment" : 2,
   "is_const" : true,
   "linker_set_key" : "_ZTIKDs",
   "name" : "const char16_t",
   "referenced_type" : "_ZTIDs",
   "size" : 2,
   "source_file" : "system/core/libutils/binder/include/utils/String16.h"
  },
  {
   "alignment" : 8,
   "is_const" : true,
   "linker_set_key" : "_ZTIKN7android10VectorImplE",
   "name" : "const android::VectorImpl",
   "referenced_type" : "_ZTIN7android10VectorImplE#ODR:out/soong/.intermediates/system/core/libutils/binder/libutils_binder/android_vendor_arm64_armv8-a_cortex-a53_static_afdo-libutils/obj/system/core/libutils/binder/RefBase.sdump",
   "self_type" : "_ZTIKN7android10VectorImplE#ODR:out/soong/.intermediates/system/core/libutils/binder/libutils_binder/android_vendor_arm64_armv8-a_cortex-a53_static_afdo-libutils/obj/system/core/libutils/binder/RefBase.sdump",
   "size" : 40,
   "source_file" : "system/core/libutils/binder/include/utils/VectorImpl.h"
  },
  {
   "alignment" : 8,
   "is_const" : true,
   "linker_set_key" : "_ZTIKN7android10VectorImplE",
   "name" : "const android::VectorImpl",
   "referenced_type" : "_ZTIN7android10VectorImplE",
   "size" : 40,
   "source_file" : "system/core/libutils/include/utils/VectorImpl.h"
  },
  {
   "alignment" : 4,
   "is_const" : true,
   "linker_set_key" : "_ZTIKN7android12LightRefBaseINS_12NativeHandleEEE",
   "name" : "const android::LightRefBase<android::NativeHandle>",
   "referenced_type" : "_ZTIN7android12LightRefBaseINS_12NativeHandleEEE",
   "size" : 4,
   "source_file" : "system/core/libutils/include/utils/LightRefBase.h"
  },
  {
   "alignment" : 8,
   "is_const" : true,
   "linker_set_key" : "_ZTIKN7android12NativeHandleE",
   "name" : "const android::NativeHandle",
   "referenced_type" : "_ZTIN7android12NativeHandleE",
   "size" : 24,
   "source_file" : "system/core/libutils/include/utils/NativeHandle.h"
  },
  {
   "alignment" : 8,
   "is_const" : true,
   "linker_set_key" : "_ZTIKN7android16ReferenceRenamerE",
   "name" : "const android::ReferenceRenamer",
   "referenced_type" : "_ZTIN7android16ReferenceRenamerE#ODR:out/soong/.intermediates/system/core/libutils/binder/libutils_binder/android_vendor_arm64_armv8-a_cortex-a53_static_afdo-libutils/obj/system/core/libutils/binder/RefBase.sdump",
   "size" : 8,
   "source_file" : "system/core/libutils/binder/include/utils/RefBase.h"
  },
  {
   "alignment" : 8,
   "is_const" : true,
   "linker_set_key" : "_ZTIKN7android16SortedVectorImplE",
   "name" : "const android::SortedVectorImpl",
   "referenced_type" : "_ZTIN7android16SortedVectorImplE#ODR:out/soong/.intermediates/system/core/libutils/binder/libutils_binder/android_vendor_arm64_armv8-a_cortex-a53_static_afdo-libutils/obj/system/core/libutils/binder/RefBase.sdump",
   "size" : 40,
   "source_file" : "system/core/libutils/binder/include/utils/VectorImpl.h"
  },
  {
   "alignment" : 8,
   "is_const" : true,
   "linker_set_key" : "_ZTIKN7android28sysprop_change_callback_infoE",
   "name" : "const android::sysprop_change_callback_info",
   "referenced_type" : "_ZTIN7android28sysprop_change_callback_infoE",
   "size" : 16,
   "source_file" : "system/core/libutils/include/utils/TypeHelpers.h"
  },
  {
   "alignment" : 8,
   "is_const" : true,
   "linker_set_key" : "_ZTIKN7android2spINS_14LooperCallbackEEE",
   "name" : "const android::sp<android::LooperCallback>",
   "referenced_type" : "_ZTIN7android2spINS_14LooperCallbackEEE",
   "size" : 8,
   "source_file" : "system/core/libutils/include/utils/StrongPointer.h"
  },
  {
   "alignment" : 8,
   "is_const" : true,
   "linker_set_key" : "_ZTIKN7android2spINS_14MessageHandlerEEE",
   "name" : "const android::sp<android::MessageHandler>",
   "referenced_type" : "_ZTIN7android2spINS_14MessageHandlerEEE",
   "size" : 8,
   "source_file" : "system/core/libutils/include/utils/StrongPointer.h"
  },
  {
   "alignment" : 8,
   "is_const" : true,
   "linker_set_key" : "_ZTIKN7android2spINS_20SimpleLooperCallbackEEE",
   "name" : "const android::sp<android::SimpleLooperCallback>",
   "referenced_type" : "_ZTIN7android2spINS_20SimpleLooperCallbackEEE",
   "size" : 8,
   "source_file" : "system/core/libutils/include/utils/StrongPointer.h"
  },
  {
   "alignment" : 8,
   "is_const" : true,
   "linker_set_key" : "_ZTIKN7android2spINS_6LooperEEE",
   "name" : "const android::sp<android::Looper>",
   "referenced_type" : "_ZTIN7android2spINS_6LooperEEE",
   "size" : 8,
   "source_file" : "system/core/libutils/include/utils/StrongPointer.h"
  },
  {
   "alignment" : 8,
   "is_const" : true,
   "linker_set_key" : "_ZTIKN7android2spINS_6ThreadEEE",
   "name" : "const android::sp<android::Thread>",
   "referenced_type" : "_ZTIN7android2spINS_6ThreadEEE",
   "size" : 8,
   "source_file" : "system/core/libutils/include/utils/RefBase.h"
  },
  {
   "alignment" : 8,
   "is_const" : true,
   "linker_set_key" : "_ZTIKN7android2wpINS_14MessageHandlerEEE",
   "name" : "const android::wp<android::MessageHandler>",
   "referenced_type" : "_ZTIN7android2wpINS_14MessageHandlerEEE",
   "size" : 16,
   "source_file" : "system/core/libutils/include/utils/RefBase.h"
  },
  {
   "alignment" : 8,
   "is_const" : true,
   "linker_set_key" : "_ZTIKN7android2wpINS_6ThreadEEE",
   "name" : "const android::wp<android::Thread>",
   "referenced_type" : "_ZTIN7android2wpINS_6ThreadEEE",
   "size" : 16,
   "source_file" : "system/core/libutils/include/utils/RefBase.h"
  },
  {
   "alignment" : 4,
   "is_const" : true,
   "linker_set_key" : "_ZTIKN7android4base11borrowed_fdE",
   "name" : "const android::base::borrowed_fd",
   "referenced_type" : "_ZTIN7android4base11borrowed_fdE",
   "size" : 4,
   "source_file" : "system/libbase/include/android-base/unique_fd.h"
  },
  {
   "alignment" : 4,
   "is_const" : true,
   "linker_set_key" : "_ZTIKN7android4base14unique_fd_implINS0_13DefaultCloserEEE",
   "name" : "const android::base::unique_fd_impl<android::base::DefaultCloser>",
   "referenced_type" : "_ZTIN7android4base14unique_fd_implINS0_13DefaultCloserEEE",
   "size" : 4,
   "source_file" : "system/libbase/include/android-base/unique_fd.h"
  },
  {
   "alignment" : 8,
   "is_const" : true,
   "linker_set_key" : "_ZTIKN7android6Looper15MessageEnvelopeE",
   "name" : "const android::Looper::MessageEnvelope",
   "referenced_type" : "_ZTIN7android6Looper15MessageEnvelopeE",
   "size" : 24,
   "source_file" : "system/core/libutils/include/utils/TypeHelpers.h"
  },
  {
   "alignment" : 8,
   "is_const" : true,
   "linker_set_key" : "_ZTIKN7android6Looper7RequestE",
   "name" : "const android::Looper::Request",
   "referenced_type" : "_ZTIN7android6Looper7RequestE",
   "size" : 32,
   "source_file" : "system/core/libutils/include/utils/Looper.h"
  },
  {
   "alignment" : 8,
   "is_const" : true,
   "linker_set_key" : "_ZTIKN7android6Looper8ResponseE",
   "name" : "const android::Looper::Response",
   "referenced_type" : "_ZTIN7android6Looper8ResponseE",
   "size" : 48,
   "source_file" : "system/core/libutils/include/utils/TypeHelpers.h"
  },
  {
   "alignment" : 8,
   "is_const" : true,
   "linker_set_key" : "_ZTIKN7android6LooperE",
   "name" : "const android::Looper",
   "referenced_type" : "_ZTIN7android6LooperE",
   "size" : 264,
   "source_file" : "system/core/libutils/include/utils/Looper.h"
  },
  {
   "alignment" : 8,
   "is_const" : true,
   "linker_set_key" : "_ZTIKN7android6ThreadE",
   "name" : "const android::Thread",
   "referenced_type" : "_ZTIN7android6ThreadE",
   "size" : 152,
   "source_file" : "system/core/libutils/include/utils/Thread.h"
  },
  {
   "alignment" : 8,
   "is_const" : true,
   "linker_set_key" : "_ZTIKN7android6VectorINS_28sysprop_change_callback_infoEEE",
   "name" : "const android::Vector<android::sysprop_change_callback_info>",
   "referenced_type" : "_ZTIN7android6VectorINS_28sysprop_change_callback_infoEEE",
   "size" : 40,
   "source_file" : "system/core/libutils/include/utils/Vector.h"
  },
  {
   "alignment" : 8,
   "is_const" : true,
   "linker_set_key" : "_ZTIKN7android6VectorINS_6Looper15MessageEnvelopeEEE",
   "name" : "const android::Vector<android::Looper::MessageEnvelope>",
   "referenced_type" : "_ZTIN7android6VectorINS_6Looper15MessageEnvelopeEEE",
   "size" : 40,
   "source_file" : "system/core/libutils/include/utils/Vector.h"
  },
  {
   "alignment" : 8,
   "is_const" : true,
   "linker_set_key" : "_ZTIKN7android6VectorINS_6Looper8ResponseEEE",
   "name" : "const android::Vector<android::Looper::Response>",
   "referenced_type" : "_ZTIN7android6VectorINS_6Looper8ResponseEEE",
   "size" : 40,
   "source_file" : "system/core/libutils/include/utils/Vector.h"
  },
  {
   "alignment" : 8,
   "is_const" : true,
   "linker_set_key" : "_ZTIKN7android6VectorINS_7String8EEE",
   "name" : "const android::Vector<android::String8>",
   "referenced_type" : "_ZTIN7android6VectorINS_7String8EEE",
   "size" : 40,
   "source_file" : "system/core/libutils/binder/include/utils/Vector.h"
  },
  {
   "alignment" : 8,
   "is_const" : true,
   "linker_set_key" : "_ZTIKN7android7FileMapE",
   "name" : "const android::FileMap",
   "referenced_type" : "_ZTIN7android7FileMapE",
   "size" : 48,
   "source_file" : "system/core/libutils/include/utils/FileMap.h"
  },
  {
   "alignment" : 4,
   "is_const" : true,
   "linker_set_key" : "_ZTIKN7android7MessageE",
   "name" : "const android::Message",
   "referenced_type" : "_ZTIN7android7MessageE",
   "size" : 4,
   "source_file" : "system/core/libutils/include/utils/Looper.h"
  },
  {
   "alignment" : 1,
   "is_const" : true,
   "linker_set_key" : "_ZTIKN7android7RefBase12weakref_typeE",
   "name" : "const android::RefBase::weakref_type",
   "referenced_type" : "_ZTIN7android7RefBase12weakref_typeE#ODR:out/soong/.intermediates/system/core/libutils/binder/libutils_binder/android_vendor_arm64_armv8-a_cortex-a53_static_afdo-libutils/obj/system/core/libutils/binder/RefBase.sdump",
   "size" : 1,
   "source_file" : "system/core/libutils/binder/include/utils/RefBase.h"
  },
  {
   "alignment" : 8,
   "is_const" : true,
   "linker_set_key" : "_ZTIKN7android7RefBaseE",
   "name" : "const android::RefBase",
   "referenced_type" : "_ZTIN7android7RefBaseE#ODR:out/soong/.intermediates/system/core/libutils/binder/libutils_binder/android_vendor_arm64_armv8-a_cortex-a53_static_afdo-libutils/obj/system/core/libutils/binder/RefBase.sdump",
   "self_type" : "_ZTIKN7android7RefBaseE#ODR:out/soong/.intermediates/system/core/libutils/binder/libutils_binder/android_vendor_arm64_armv8-a_cortex-a53_static_afdo-libutils/obj/system/core/libutils/binder/RefBase.sdump",
   "size" : 16,
   "source_file" : "system/core/libutils/binder/include/utils/RefBase.h"
  },
  {
   "alignment" : 8,
   "is_const" : true,
   "linker_set_key" : "_ZTIKN7android7RefBaseE",
   "name" : "const android::RefBase",
   "referenced_type" : "_ZTIN7android7RefBaseE",
   "size" : 16,
   "source_file" : "system/core/libutils/include/utils/RefBase.h"
  },
  {
   "alignment" : 8,
   "is_const" : true,
   "linker_set_key" : "_ZTIKN7android7String8E",
   "name" : "const android::String8",
   "referenced_type" : "_ZTIN7android7String8E#ODR:out/soong/.intermediates/system/core/libutils/binder/libutils_binder/android_vendor_arm64_armv8-a_cortex-a53_static_afdo-libutils/obj/system/core/libutils/binder/RefBase.sdump",
   "self_type" : "_ZTIKN7android7String8E#ODR:out/soong/.intermediates/system/core/libutils/binder/libutils_binder/android_vendor_arm64_armv8-a_cortex-a53_static_afdo-libutils/obj/system/core/libutils/binder/RefBase.sdump",
   "size" : 8,
   "source_file" : "system/core/libutils/binder/include/utils/String8.h"
  },
  {
   "alignment" : 8,
   "is_const" : true,
   "linker_set_key" : "_ZTIKN7android7String8E",
   "name" : "const android::String8",
   "referenced_type" : "_ZTIN7android7String8E",
   "size" : 8,
   "source_file" : "system/core/libutils/include/utils/String8.h"
  },
  {
   "alignment" : 4,
   "is_const" : true,
   "linker_set_key" : "_ZTIKN7android8String1610StaticDataILm1EEE",
   "name" : "const android::String16::StaticData<1>",
   "referenced_type" : "_ZTIN7android8String1610StaticDataILm1EEE",
   "size" : 8,
   "source_file" : "system/core/libutils/binder/include/utils/String16.h"
  },
  {
   "alignment" : 8,
   "is_const" : true,
   "linker_set_key" : "_ZTIKN7android8String16E",
   "name" : "const android::String16",
   "referenced_type" : "_ZTIN7android8String16E",
   "size" : 8,
   "source_file" : "system/core/libutils/binder/include/utils/String16.h"
  },
  {
   "alignment" : 8,
   "is_const" : true,
   "linker_set_key" : "_ZTIKN7android9StopWatchE",
   "name" : "const android::StopWatch",
   "referenced_type" : "_ZTIN7android9StopWatchE",
   "size" : 24,
   "source_file" : "system/core/libutils/include/utils/StopWatch.h"
  },
  {
   "alignment" : 8,
   "is_const" : true,
   "linker_set_key" : "_ZTIKN7android9TokenizerE",
   "name" : "const android::Tokenizer",
   "referenced_type" : "_ZTIN7android9TokenizerE",
   "size" : 56,
   "source_file" : "system/core/libutils/include/utils/Tokenizer.h"
  },
  {
   "alignment" : 8,
   "is_const" : true,
   "linker_set_key" : "_ZTIKPN7android7RefBase12weakref_implE",
   "name" : "android::RefBase::weakref_impl *const",
   "referenced_type" : "_ZTIPN7android7RefBase12weakref_implE",
   "size" : 8,
   "source_file" : "system/core/libutils/include/utils/RefBase.h"
  },
  {
   "alignment" : 1,
   "is_const" : true,
   "linker_set_key" : "_ZTIKa",
   "name" : "const signed char",
   "referenced_type" : "_ZTIa",
   "size" : 1,
   "source_file" : "system/core/libutils/include/utils/TypeHelpers.h"
  },
  {
   "alignment" : 1,
   "is_const" : true,
   "linker_set_key" : "_ZTIKb",
   "name" : "const bool",
   "referenced_type" : "_ZTIb",
   "size" : 1,
   "source_file" : "system/core/libutils/include/utils/TypeHelpers.h"
  },
  {
   "alignment" : 1,
   "is_const" : true,
   "linker_set_key" : "_ZTIKc",
   "name" : "const char",
   "referenced_type" : "_ZTIc",
   "size" : 1,
   "source_file" : "system/core/libutils/include/utils/FileMap.h"
  },
  {
   "alignment" : 8,
   "is_const" : true,
   "linker_set_key" : "_ZTIKd",
   "name" : "const double",
   "referenced_type" : "_ZTId",
   "size" : 8,
   "source_file" : "system/core/libutils/include/utils/TypeHelpers.h"
  },
  {
   "alignment" : 4,
   "is_const" : true,
   "linker_set_key" : "_ZTIKf",
   "name" : "const float",
   "referenced_type" : "_ZTIf",
   "size" : 4,
   "source_file" : "system/core/libutils/include/utils/TypeHelpers.h"
  },
  {
   "alignment" : 1,
   "is_const" : true,
   "linker_set_key" : "_ZTIKh",
   "name" : "const unsigned char",
   "referenced_type" : "_ZTIh",
   "size" : 1,
   "source_file" : "system/core/libutils/include/utils/TypeHelpers.h"
  },
  {
   "alignment" : 4,
   "is_const" : true,
   "linker_set_key" : "_ZTIKi",
   "name" : "const int",
   "referenced_type" : "_ZTIi",
   "size" : 4,
   "source_file" : "system/core/libutils/include/utils/TypeHelpers.h"
  },
  {
   "alignment" : 4,
   "is_const" : true,
   "linker_set_key" : "_ZTIKj",
   "name" : "const unsigned int",
   "referenced_type" : "_ZTIj",
   "size" : 4,
   "source_file" : "system/core/libutils/include/utils/TypeHelpers.h"
  },
  {
   "alignment" : 8,
   "is_const" : true,
   "linker_set_key" : "_ZTIKl",
   "name" : "const long",
   "referenced_type" : "_ZTIl",
   "size" : 8,
   "source_file" : "system/core/libutils/include/utils/TypeHelpers.h"
  },
  {
   "alignment" : 8,
   "is_const" : true,
   "linker_set_key" : "_ZTIKm",
   "name" : "const unsigned long",
   "referenced_type" : "_ZTIm",
   "size" : 8,
   "source_file" : "system/core/libutils/include/utils/TypeHelpers.h"
  },
  {
   "alignment" : 2,
   "is_const" : true,
   "linker_set_key" : "_ZTIKs",
   "name" : "const short",
   "referenced_type" : "_ZTIs",
   "size" : 2,
   "source_file" : "system/core/libutils/include/utils/TypeHelpers.h"
  },
  {
   "alignment" : 2,
   "is_const" : true,
   "linker_set_key" : "_ZTIKt",
   "name" : "const unsigned short",
   "referenced_type" : "_ZTIt",
   "size" : 2,
   "source_file" : "system/core/libutils/include/utils/TypeHelpers.h"
  },
  {
   "is_const" : true,
   "linker_set_key" : "_ZTIKv",
   "name" : "const void",
   "referenced_type" : "_ZTIv",
   "source_file" : "system/core/libutils/include/utils/LightRefBase.h"
  },
  {
   "alignment" : 1,
   "is_volatile" : true,
   "linker_set_key" : "_ZTIVb",
   "name" : "volatile bool",
   "referenced_type" : "_ZTIb",
   "size" : 1,
   "source_file" : "system/core/libutils/include/utils/Thread.h"
  }
 ],
 "record_types" :
 [
  {
   "alignment" : 4,
   "fields" :
   [
    {
     "field_name" : "len",
     "referenced_type" : "_ZTIt"
    },
    {
     "field_name" : "hdr_size",
     "field_offset" : 16,
     "referenced_type" : "_ZTIt"
    },
    {
     "field_name" : "pid",
     "field_offset" : 32,
     "referenced_type" : "_ZTIi"
    },
    {
     "field_name" : "tid",
     "field_offset" : 64,
     "referenced_type" : "_ZTIj"
    },
    {
     "field_name" : "sec",
     "field_offset" : 96,
     "referenced_type" : "_ZTIj"
    },
    {
     "field_name" : "nsec",
     "field_offset" : 128,
     "referenced_type" : "_ZTIj"
    },
    {
     "field_name" : "lid",
     "field_offset" : 160,
     "referenced_type" : "_ZTIj"
    },
    {
     "field_name" : "uid",
     "field_offset" : 192,
     "referenced_type" : "_ZTIj"
    }
   ],
   "linker_set_key" : "_ZTI12logger_entry",
   "name" : "logger_entry",
   "size" : 28,
   "source_file" : "system/logging/liblog/include_vndk/log/log_read.h"
  },
  {
   "alignment" : 8,
   "fields" :
   [
    {
     "field_name" : "y",
     "referenced_type" : "_ZTIPv"
    },
    {
     "field_name" : "cb",
     "field_offset" : 64,
     "referenced_type" : "_ZTIPv"
    },
    {
     "field_name" : "cr",
     "field_offset" : 128,
     "referenced_type" : "_ZTIPv"
    },
    {
     "field_name" : "ystride",
     "field_offset" : 192,
     "referenced_type" : "_ZTIm"
    },
    {
     "field_name" : "cstride",
     "field_offset" : 256,
     "referenced_type" : "_ZTIm"
    },
    {
     "field_name" : "chroma_step",
     "field_offset" : 320,
     "referenced_type" : "_ZTIm"
    },
    {
     "field_name" : "reserved",
     "field_offset" : 384,
     "referenced_type" : "_ZTIA8_j"
    }
   ],
   "linker_set_key" : "_ZTI13android_ycbcr",
   "name" : "android_ycbcr",
   "size" : 80,
   "source_file" : "system/core/libsystem/include/system/graphics.h"
  },
  {
   "alignment" : 4,
   "fields" :
   [
    {
     "field_name" : "version",
     "referenced_type" : "_ZTIi"
    },
    {
     "field_name" : "numFds",
     "field_offset" : 32,
     "referenced_type" : "_ZTIi"
    },
    {
     "field_name" : "numInts",
     "field_offset" : 64,
     "referenced_type" : "_ZTIi"
    },
    {
     "field_name" : "data",
     "field_offset" : 96,
     "referenced_type" : "_ZTIA0_i"
    }
   ],
   "linker_set_key" : "_ZTI13native_handle",
   "name" : "native_handle",
   "size" : 12,
   "source_file" : "system/core/libcutils/include_outside_system/cutils/native_handle.h"
  },
  {
   "alignment" : 4,
   "fields" :
   [
    {
     "field_name" : "x",
     "referenced_type" : "_ZTIf"
    },
    {
     "field_name" : "y",
     "field_offset" : 32,
     "referenced_type" : "_ZTIf"
    }
   ],
   "linker_set_key" : "_ZTI16android_xy_color",
   "name" : "android_xy_color",
   "size" : 8,
   "source_file" : "system/core/libsystem/include/system/graphics.h"
  },
  {
   "alignment" : 8,
   "fields" :
   [
    {
     "field_name" : "top_left",
     "referenced_type" : "_ZTIPh"
    },
    {
     "field_name" : "component",
     "field_offset" : 64,
     "referenced_type" : "_ZTI22android_flex_component"
    },
    {
     "field_name" : "bits_per_component",
     "field_offset" : 96,
     "referenced_type" : "_ZTIi"
    },
    {
     "field_name" : "bits_used",
     "field_offset" : 128,
     "referenced_type" : "_ZTIi"
    },
    {
     "field_name" : "h_increment",
     "field_offset" : 160,
     "referenced_type" : "_ZTIi"
    },
    {
     "field_name" : "v_increment",
     "field_offset" : 192,
     "referenced_type" : "_ZTIi"
    },
    {
     "field_name" : "h_subsampling",
     "field_offset" : 224,
     "referenced_type" : "_ZTIi"
    },
    {
     "field_name" : "v_subsampling",
     "field_offset" : 256,
     "referenced_type" : "_ZTIi"
    }
   ],
   "linker_set_key" : "_ZTI18android_flex_plane",
   "name" : "android_flex_plane",
   "size" : 40,
   "source_file" : "system/core/libsystem/include/system/graphics.h"
  },
  {
   "alignment" : 8,
   "fields" :
   [
    {
     "field_name" : "format",
     "referenced_type" : "_ZTI19android_flex_format"
    },
    {
     "field_name" : "num_planes",
     "field_offset" : 32,
     "referenced_type" : "_ZTIj"
    },
    {
     "field_name" : "planes",
     "field_offset" : 64,
     "referenced_type" : "_ZTIP18android_flex_plane"
    }
   ],
   "linker_set_key" : "_ZTI19android_flex_layout",
   "name" : "android_flex_layout",
   "size" : 16,
   "source_file" : "system/core/libsystem/include/system/graphics.h"
  },
  {
   "alignment" : 4,
   "fields" :
   [
    {
     "field_name" : "num_points",
     "referenced_type" : "_ZTIj"
    },
    {
     "field_name" : "reserved",
     "field_offset" : 32,
     "referenced_type" : "_ZTIA8_j"
    },
    {
     "field_name" : "xyzc_points",
     "field_offset" : 288,
     "referenced_type" : "_ZTIA_f"
    }
   ],
   "linker_set_key" : "_ZTI20android_depth_points",
   "name" : "android_depth_points",
   "size" : 36,
   "source_file" : "system/core/libsystem/include/system/graphics.h"
  },
  {
   "alignment" : 8,
   "fields" :
   [
    {
     "field_name" : "struct_size",
     "referenced_type" : "_ZTIm"
    },
    {
     "field_name" : "buffer_id",
     "field_offset" : 64,
     "referenced_type" : "_ZTIi"
    },
    {
     "field_name" : "priority",
     "field_offset" : 96,
     "referenced_type" : "_ZTIi"
    },
    {
     "field_name" : "tag",
     "field_offset" : 128,
     "referenced_type" : "_ZTIPKc"
    },
    {
     "field_name" : "file",
     "field_offset" : 192,
     "referenced_type" : "_ZTIPKc"
    },
    {
     "field_name" : "line",
     "field_offset" : 256,
     "referenced_type" : "_ZTIj"
    },
    {
     "field_name" : "message",
     "field_offset" : 320,
     "referenced_type" : "_ZTIPKc"
    }
   ],
   "linker_set_key" : "_ZTI21__android_log_message",
   "name" : "__android_log_message",
   "size" : 48,
   "source_file" : "system/logging/liblog/include_vndk/android/log.h"
  },
  {
   "alignment" : 4,
   "fields" :
   [
    {
     "field_name" : "maxContentLightLevel",
     "referenced_type" : "_ZTIf"
    },
    {
     "field_name" : "maxFrameAverageLightLevel",
     "field_offset" : 32,
     "referenced_type" : "_ZTIf"
    }
   ],
   "linker_set_key" : "_ZTI25android_cta861_3_metadata",
   "name" : "android_cta861_3_metadata",
   "size" : 8,
   "source_file" : "system/core/libsystem/include/system/graphics.h"
  },
  {
   "alignment" : 4,
   "fields" :
   [
    {
     "field_name" : "displayPrimaryRed",
     "referenced_type" : "_ZTI16android_xy_color"
    },
    {
     "field_name" : "displayPrimaryGreen",
     "field_offset" : 64,
     "referenced_type" : "_ZTI16android_xy_color"
    },
    {
     "field_name" : "displayPrimaryBlue",
     "field_offset" : 128,
     "referenced_type" : "_ZTI16android_xy_color"
    },
    {
     "field_name" : "whitePoint",
     "field_offset" : 192,
     "referenced_type" : "_ZTI16android_xy_color"
    },
    {
     "field_name" : "maxLuminance",
     "field_offset" : 256,
     "referenced_type" : "_ZTIf"
    },
    {
     "field_name" : "minLuminance",
     "field_offset" : 288,
     "referenced_type" : "_ZTIf"
    }
   ],
   "linker_set_key" : "_ZTI26android_smpte2086_metadata",
   "name" : "android_smpte2086_metadata",
   "size" : 40,
   "source_file" : "system/core/libsystem/include/system/graphics.h"
  },
  {
   "alignment" : 4,
   "fields" :
   [
    {
     "referenced_type" : "_ZTIN7log_msgUt_E"
    }
   ],
   "linker_set_key" : "_ZTI7log_msg",
   "name" : "log_msg",
   "size" : 5124,
   "source_file" : "system/logging/liblog/include_vndk/log/log_read.h"
  },
  {
   "alignment" : 1,
   "fields" :
   [
    {
     "field_name" : "tv_sec",
     "referenced_type" : "_ZTIj"
    },
    {
     "field_name" : "tv_nsec",
     "field_offset" : 32,
     "referenced_type" : "_ZTIj"
    }
   ],
   "linker_set_key" : "_ZTI8log_time",
   "name" : "log_time",
   "size" : 8,
   "source_file" : "system/logging/liblog/include_vndk/log/log_time.h"
  },
  {
   "alignment" : 8,
   "base_specifiers" :
   [
    {
     "referenced_type" : "_ZTIN7android7PrinterE"
    }
   ],
   "fields" :
   [
    {
     "access" : "private",
     "field_name" : "mLogTag",
     "field_offset" : 64,
     "referenced_type" : "_ZTIPKc"
    },
    {
     "access" : "private",
     "field_name" : "mPriority",
     "field_offset" : 128,
     "referenced_type" : "_ZTI19android_LogPriority"
    },
    {
     "access" : "private",
     "field_name" : "mPrefix",
     "field_offset" : 192,
     "referenced_type" : "_ZTIPKc"
    },
    {
     "access" : "private",
     "field_name" : "mIgnoreBlankLines",
     "field_offset" : 256,
     "referenced_type" : "_ZTIb"
    }
   ],
   "linker_set_key" : "_ZTIN7android10LogPrinterE",
   "name" : "android::LogPrinter",
   "record_kind" : "class",
   "size" : 40,
   "source_file" : "system/core/libutils/include/utils/Printer.h",
   "vtable_components" :
   [
    {
     "kind" : "offset_to_top"
    },
    {
     "kind" : "rtti",
     "mangled_component_name" : "_ZTIN7android10LogPrinterE"
    },
    {
     "mangled_component_name" : "_ZN7android10LogPrinter9printLineEPKc"
    },
    {
     "mangled_component_name" : "_ZN7android7Printer15printFormatLineEPKcz"
    },
    {
     "kind" : "complete_dtor_pointer",
     "mangled_component_name" : "_ZN7android10LogPrinterD1Ev"
    },
    {
     "kind" : "deleting_dtor_pointer",
     "mangled_component_name" : "_ZN7android10LogPrinterD0Ev"
    }
   ]
  },
  {
   "alignment" : 8,
   "fields" :
   [
    {
     "access" : "private",
     "field_name" : "mStorage",
     "field_offset" : 64,
     "referenced_type" : "_ZTIPv"
    },
    {
     "access" : "private",
     "field_name" : "mCount",
     "field_offset" : 128,
     "referenced_type" : "_ZTIm"
    },
    {
     "access" : "private",
     "field_name" : "mFlags",
     "field_offset" : 192,
     "referenced_type" : "_ZTIKj"
    },
    {
     "access" : "private",
     "field_name" : "mItemSize",
     "field_offset" : 256,
     "referenced_type" : "_ZTIKm"
    }
   ],
   "linker_set_key" : "_ZTIN7android10VectorImplE",
   "name" : "android::VectorImpl",
   "record_kind" : "class",
   "size" : 40,
   "source_file" : "system/core/libutils/include/utils/VectorImpl.h",
   "vtable_components" :
   [
    {
     "kind" : "offset_to_top"
    },
    {
     "kind" : "rtti",
     "mangled_component_name" : "_ZTIN7android10VectorImplE"
    },
    {
     "kind" : "complete_dtor_pointer",
     "mangled_component_name" : "_ZN7android10VectorImplD1Ev"
    },
    {
     "kind" : "deleting_dtor_pointer",
     "mangled_component_name" : "_ZN7android10VectorImplD0Ev"
    },
    {
     "is_pure" : true,
     "mangled_component_name" : "_ZNK7android10VectorImpl12do_constructEPvm"
    },
    {
     "is_pure" : true,
     "mangled_component_name" : "_ZNK7android10VectorImpl10do_destroyEPvm"
    },
    {
     "is_pure" : true,
     "mangled_component_name" : "_ZNK7android10VectorImpl7do_copyEPvPKvm"
    },
    {
     "is_pure" : true,
     "mangled_component_name" : "_ZNK7android10VectorImpl8do_splatEPvPKvm"
    },
    {
     "is_pure" : true,
     "mangled_component_name" : "_ZNK7android10VectorImpl15do_move_forwardEPvPKvm"
    },
    {
     "is_pure" : true,
     "mangled_component_name" : "_ZNK7android10VectorImpl16do_move_backwardEPvPKvm"
    }
   ]
  },
  {
   "alignment" : 8,
   "fields" :
   [
    {
     "access" : "private",
     "field_name" : "mStorage",
     "field_offset" : 64,
     "referenced_type" : "_ZTIPv"
    },
    {
     "access" : "private",
     "field_name" : "mCount",
     "field_offset" : 128,
     "referenced_type" : "_ZTIm"
    },
    {
     "access" : "private",
     "field_name" : "mFlags",
     "field_offset" : 192,
     "referenced_type" : "_ZTIKj"
    },
    {
     "access" : "private",
     "field_name" : "mItemSize",
     "field_offset" : 256,
     "referenced_type" : "_ZTIKm"
    }
   ],
   "linker_set_key" : "_ZTIN7android10VectorImplE",
   "name" : "android::VectorImpl",
   "record_kind" : "class",
   "self_type" : "_ZTIN7android10VectorImplE#ODR:out/soong/.intermediates/system/core/libutils/binder/libutils_binder/android_vendor_arm64_armv8-a_cortex-a53_static_afdo-libutils/obj/system/core/libutils/binder/RefBase.sdump",
   "size" : 40,
   "source_file" : "system/core/libutils/binder/include/utils/VectorImpl.h",
   "vtable_components" :
   [
    {
     "kind" : "offset_to_top"
    },
    {
     "kind" : "rtti",
     "mangled_component_name" : "_ZTIN7android10VectorImplE"
    },
    {
     "kind" : "complete_dtor_pointer",
     "mangled_component_name" : "_ZN7android10VectorImplD1Ev"
    },
    {
     "kind" : "deleting_dtor_pointer",
     "mangled_component_name" : "_ZN7android10VectorImplD0Ev"
    },
    {
     "is_pure" : true,
     "mangled_component_name" : "_ZNK7android10VectorImpl12do_constructEPvm"
    },
    {
     "is_pure" : true,
     "mangled_component_name" : "_ZNK7android10VectorImpl10do_destroyEPvm"
    },
    {
     "is_pure" : true,
     "mangled_component_name" : "_ZNK7android10VectorImpl7do_copyEPvPKvm"
    },
    {
     "is_pure" : true,
     "mangled_component_name" : "_ZNK7android10VectorImpl8do_splatEPvPKvm"
    },
    {
     "is_pure" : true,
     "mangled_component_name" : "_ZNK7android10VectorImpl15do_move_forwardEPvPKvm"
    },
    {
     "is_pure" : true,
     "mangled_component_name" : "_ZNK7android10VectorImpl16do_move_backwardEPvPKvm"
    }
   ]
  },
  {
   "alignment" : 8,
   "fields" :
   [
    {
     "access" : "private",
     "field_name" : "mTag",
     "referenced_type" : "_ZTIm"
    }
   ],
   "linker_set_key" : "_ZTIN7android11ScopedTraceE",
   "name" : "android::ScopedTrace",
   "record_kind" : "class",
   "size" : 8,
   "source_file" : "system/core/libutils/include/utils/Trace.h"
  },
  {
   "alignment" : 4,
   "fields" :
   [
    {
     "access" : "private",
     "field_name" : "mCount",
     "referenced_type" : "_ZTINSt3__16atomicIiEE"
    }
   ],
   "linker_set_key" : "_ZTIN7android12LightRefBaseINS_12NativeHandleEEE",
   "name" : "android::LightRefBase<android::NativeHandle>",
   "record_kind" : "class",
   "size" : 4,
   "source_file" : "system/core/libutils/include/utils/LightRefBase.h",
   "template_args" :
   [
    "_ZTIN7android12NativeHandleE"
   ]
  },
  {
   "alignment" : 4,
   "fields" :
   [
    {
     "access" : "private",
     "field_name" : "mCount",
     "referenced_type" : "_ZTINSt3__16atomicIiEE"
    }
   ],
   "linker_set_key" : "_ZTIN7android12LightRefBaseINS_19VirtualLightRefBaseEEE",
   "name" : "android::LightRefBase<android::VirtualLightRefBase>",
   "record_kind" : "class",
   "size" : 4,
   "source_file" : "system/core/libutils/include/utils/LightRefBase.h",
   "template_args" :
   [
    "_ZTIN7android19VirtualLightRefBaseE"
   ]
  },
  {
   "alignment" : 4,
   "fields" :
   [
    {
     "access" : "private",
     "field_name" : "mCount",
     "referenced_type" : "_ZTINSt3__16atomicIiEE"
    }
   ],
   "linker_set_key" : "_ZTIN7android12LightRefBaseINS_19VirtualLightRefBaseEEE",
   "name" : "android::LightRefBase<android::VirtualLightRefBase>",
   "record_kind" : "class",
   "self_type" : "_ZTIN7android12LightRefBaseINS_19VirtualLightRefBaseEEE#ODR:out/soong/.intermediates/system/core/libutils/binder/libutils_binder/android_vendor_arm64_armv8-a_cortex-a53_static_afdo-libutils/obj/system/core/libutils/binder/RefBase.sdump",
   "size" : 4,
   "source_file" : "system/core/libutils/binder/include/utils/LightRefBase.h",
   "template_args" :
   [
    "_ZTIN7android19VirtualLightRefBaseE#ODR:out/soong/.intermediates/system/core/libutils/binder/libutils_binder/android_vendor_arm64_armv8-a_cortex-a53_static_afdo-libutils/obj/system/core/libutils/binder/RefBase.sdump"
   ]
  },
  {
   "alignment" : 8,
   "base_specifiers" :
   [
    {
     "referenced_type" : "_ZTIN7android12LightRefBaseINS_12NativeHandleEEE"
    }
   ],
   "fields" :
   [
    {
     "access" : "private",
     "field_name" : "mHandle",
     "field_offset" : 64,
     "referenced_type" : "_ZTIP13native_handle"
    },
    {
     "access" : "private",
     "field_name" : "mOwnsHandle",
     "field_offset" : 128,
     "referenced_type" : "_ZTIb"
    }
   ],
   "linker_set_key" : "_ZTIN7android12NativeHandleE",
   "name" : "android::NativeHandle",
   "record_kind" : "class",
   "size" : 24,
   "source_file" : "system/core/libutils/include/utils/NativeHandle.h"
  },
  {
   "alignment" : 8,
   "base_specifiers" :
   [
    {
     "referenced_type" : "_ZTIN7android7PrinterE"
    }
   ],
   "fields" :
   [
    {
     "access" : "private",
     "field_name" : "mPrinter",
     "field_offset" : 64,
     "referenced_type" : "_ZTIRN7android7PrinterE"
    },
    {
     "access" : "private",
     "field_name" : "mPrefix",
     "field_offset" : 128,
     "referenced_type" : "_ZTIPKc"
    }
   ],
   "linker_set_key" : "_ZTIN7android13PrefixPrinterE",
   "name" : "android::PrefixPrinter",
   "record_kind" : "class",
   "size" : 24,
   "source_file" : "system/core/libutils/include/utils/Printer.h",
   "vtable_components" :
   [
    {
     "kind" : "offset_to_top"
    },
    {
     "kind" : "rtti",
     "mangled_component_name" : "_ZTIN7android13PrefixPrinterE"
    },
    {
     "mangled_component_name" : "_ZN7android13PrefixPrinter9printLineEPKc"
    },
    {
     "mangled_component_name" : "_ZN7android7Printer15printFormatLineEPKcz"
    },
    {
     "kind" : "complete_dtor_pointer",
     "mangled_component_name" : "_ZN7android13PrefixPrinterD1Ev"
    },
    {
     "kind" : "deleting_dtor_pointer",
     "mangled_component_name" : "_ZN7android13PrefixPrinterD0Ev"
    }
   ]
  },
  {
   "alignment" : 1,
   "linker_set_key" : "_ZTIN7android13trait_pointerINS_28sysprop_change_callback_infoEEE",
   "name" : "android::trait_pointer<android::sysprop_change_callback_info>",
   "size" : 1,
   "source_file" : "system/core/libutils/include/utils/TypeHelpers.h",
   "template_args" :
   [
    "_ZTIN7android28sysprop_change_callback_infoE"
   ]
  },
  {
   "alignment" : 1,
   "linker_set_key" : "_ZTIN7android13trait_pointerINS_6Looper15MessageEnvelopeEEE",
   "name" : "android::trait_pointer<android::Looper::MessageEnvelope>",
   "size" : 1,
   "source_file" : "system/core/libutils/include/utils/TypeHelpers.h",
   "template_args" :
   [
    "_ZTIN7android6Looper15MessageEnvelopeE"
   ]
  },
  {
   "alignment" : 1,
   "linker_set_key" : "_ZTIN7android13trait_pointerINS_6Looper8ResponseEEE",
   "name" : "android::trait_pointer<android::Looper::Response>",
   "size" : 1,
   "source_file" : "system/core/libutils/include/utils/TypeHelpers.h",
   "template_args" :
   [
    "_ZTIN7android6Looper8ResponseE"
   ]
  },
  {
   "alignment" : 8,
   "base_specifiers" :
   [
    {
     "is_virtual" : true,
     "referenced_type" : "_ZTIN7android7RefBaseE"
    }
   ],
   "linker_set_key" : "_ZTIN7android14LooperCallbackE",
   "name" : "android::LooperCallback",
   "record_kind" : "class",
   "size" : 24,
   "source_file" : "system/core/libutils/include/utils/Looper.h",
   "vtable_components" :
   [
    {
     "component_value" : 8,
     "kind" : "vbase_offset"
    },
    {
     "kind" : "offset_to_top"
    },
    {
     "kind" : "rtti",
     "mangled_component_name" : "_ZTIN7android14LooperCallbackE"
    },
    {
     "kind" : "complete_dtor_pointer",
     "mangled_component_name" : "_ZN7android14LooperCallbackD1Ev"
    },
    {
     "kind" : "deleting_dtor_pointer",
     "mangled_component_name" : "_ZN7android14LooperCallbackD0Ev"
    },
    {
     "is_pure" : true,
     "mangled_component_name" : "_ZN7android14LooperCallback11handleEventEiiPv"
    },
    {
     "kind" : "vcall_offset"
    },
    {
     "kind" : "vcall_offset"
    },
    {
     "kind" : "vcall_offset"
    },
    {
     "kind" : "vcall_offset"
    },
    {
     "component_value" : -8,
     "kind" : "vcall_offset"
    },
    {
     "component_value" : -8,
     "kind" : "offset_to_top"
    },
    {
     "kind" : "rtti",
     "mangled_component_name" : "_ZTIN7android14LooperCallbackE"
    },
    {
     "kind" : "complete_dtor_pointer",
     "mangled_component_name" : "_ZTv0_n24_N7android14LooperCallbackD1Ev"
    },
    {
     "kind" : "deleting_dtor_pointer",
     "mangled_component_name" : "_ZTv0_n24_N7android14LooperCallbackD0Ev"
    },
    {
     "mangled_component_name" : "_ZN7android7RefBase10onFirstRefEv"
    },
    {
     "mangled_component_name" : "_ZN7android7RefBase15onLastStrongRefEPKv"
    },
    {
     "mangled_component_name" : "_ZN7android7RefBase20onIncStrongAttemptedEjPKv"
    },
    {
     "mangled_component_name" : "_ZN7android7RefBase13onLastWeakRefEPKv"
    }
   ]
  },
  {
   "alignment" : 8,
   "base_specifiers" :
   [
    {
     "is_virtual" : true,
     "referenced_type" : "_ZTIN7android7RefBaseE"
    }
   ],
   "linker_set_key" : "_ZTIN7android14MessageHandlerE",
   "name" : "android::MessageHandler",
   "record_kind" : "class",
   "size" : 24,
   "source_file" : "system/core/libutils/include/utils/Looper.h",
   "vtable_components" :
   [
    {
     "component_value" : 8,
     "kind" : "vbase_offset"
    },
    {
     "kind" : "offset_to_top"
    },
    {
     "kind" : "rtti",
     "mangled_component_name" : "_ZTIN7android14MessageHandlerE"
    },
    {
     "kind" : "complete_dtor_pointer",
     "mangled_component_name" : "_ZN7android14MessageHandlerD1Ev"
    },
    {
     "kind" : "deleting_dtor_pointer",
     "mangled_component_name" : "_ZN7android14MessageHandlerD0Ev"
    },
    {
     "is_pure" : true,
     "mangled_component_name" : "_ZN7android14MessageHandler13handleMessageERKNS_7MessageE"
    },
    {
     "kind" : "vcall_offset"
    },
    {
     "kind" : "vcall_offset"
    },
    {
     "kind" : "vcall_offset"
    },
    {
     "kind" : "vcall_offset"
    },
    {
     "component_value" : -8,
     "kind" : "vcall_offset"
    },
    {
     "component_value" : -8,
     "kind" : "offset_to_top"
    },
    {
     "kind" : "rtti",
     "mangled_component_name" : "_ZTIN7android14MessageHandlerE"
    },
    {
     "kind" : "complete_dtor_pointer",
     "mangled_component_name" : "_ZTv0_n24_N7android14MessageHandlerD1Ev"
    },
    {
     "kind" : "deleting_dtor_pointer",
     "mangled_component_name" : "_ZTv0_n24_N7android14MessageHandlerD0Ev"
    },
    {
     "mangled_component_name" : "_ZN7android7RefBase10onFirstRefEv"
    },
    {
     "mangled_component_name" : "_ZN7android7RefBase15onLastStrongRefEPKv"
    },
    {
     "mangled_component_name" : "_ZN7android7RefBase20onIncStrongAttemptedEjPKv"
    },
    {
     "mangled_component_name" : "_ZN7android7RefBase13onLastWeakRefEPKv"
    }
   ]
  },
  {
   "alignment" : 1,
   "linker_set_key" : "_ZTIN7android14ReferenceMoverE",
   "name" : "android::ReferenceMover",
   "record_kind" : "class",
   "size" : 1,
   "source_file" : "system/core/libutils/include/utils/RefBase.h"
  },
  {
   "alignment" : 1,
   "linker_set_key" : "_ZTIN7android14ReferenceMoverE",
   "name" : "android::ReferenceMover",
   "record_kind" : "class",
   "self_type" : "_ZTIN7android14ReferenceMoverE#ODR:out/soong/.intermediates/system/core/libutils/binder/libutils_binder/android_vendor_arm64_armv8-a_cortex-a53_static_afdo-libutils/obj/system/core/libutils/binder/RefBase.sdump",
   "size" : 1,
   "source_file" : "system/core/libutils/binder/include/utils/RefBase.h"
  },
  {
   "alignment" : 8,
   "base_specifiers" :
   [
    {
     "referenced_type" : "_ZTIN7android8String16E"
    }
   ],
   "fields" :
   [
    {
     "access" : "private",
     "field_name" : "mData",
     "field_offset" : 64,
     "referenced_type" : "_ZTIKN7android8String1610StaticDataILm1EEE"
    }
   ],
   "linker_set_key" : "_ZTIN7android14StaticString16ILm1EEE",
   "name" : "android::StaticString16<1>",
   "record_kind" : "class",
   "size" : 16,
   "source_file" : "system/core/libutils/binder/include/utils/String16.h"
  },
  {
   "alignment" : 8,
   "base_specifiers" :
   [
    {
     "referenced_type" : "_ZTIN7android7PrinterE"
    }
   ],
   "fields" :
   [
    {
     "access" : "private",
     "field_name" : "mTarget",
     "field_offset" : 64,
     "referenced_type" : "_ZTIPN7android7String8E"
    },
    {
     "access" : "private",
     "field_name" : "mPrefix",
     "field_offset" : 128,
     "referenced_type" : "_ZTIPKc"
    }
   ],
   "linker_set_key" : "_ZTIN7android14String8PrinterE",
   "name" : "android::String8Printer",
   "record_kind" : "class",
   "size" : 24,
   "source_file" : "system/core/libutils/include/utils/Printer.h",
   "vtable_components" :
   [
    {
     "kind" : "offset_to_top"
    },
    {
     "kind" : "rtti",
     "mangled_component_name" : "_ZTIN7android14String8PrinterE"
    },
    {
     "mangled_component_name" : "_ZN7android14String8Printer9printLineEPKc"
    },
    {
     "mangled_component_name" : "_ZN7android7Printer15printFormatLineEPKcz"
    },
    {
     "kind" : "complete_dtor_pointer",
     "mangled_component_name" : "_ZN7android14String8PrinterD1Ev"
    },
    {
     "kind" : "deleting_dtor_pointer",
     "mangled_component_name" : "_ZN7android14String8PrinterD0Ev"
    }
   ]
  },
  {
   "alignment" : 8,
   "linker_set_key" : "_ZTIN7android16ReferenceRenamerE",
   "name" : "android::ReferenceRenamer",
   "record_kind" : "class",
   "size" : 8,
   "source_file" : "system/core/libutils/include/utils/RefBase.h",
   "vtable_components" :
   [
    {
     "kind" : "offset_to_top"
    },
    {
     "kind" : "rtti",
     "mangled_component_name" : "_ZTIN7android16ReferenceRenamerE"
    },
    {
     "is_pure" : true,
     "mangled_component_name" : "_ZNK7android16ReferenceRenamerclEm"
    }
   ]
  },
  {
   "alignment" : 8,
   "linker_set_key" : "_ZTIN7android16ReferenceRenamerE",
   "name" : "android::ReferenceRenamer",
   "record_kind" : "class",
   "self_type" : "_ZTIN7android16ReferenceRenamerE#ODR:out/soong/.intermediates/system/core/libutils/binder/libutils_binder/android_vendor_arm64_armv8-a_cortex-a53_static_afdo-libutils/obj/system/core/libutils/binder/RefBase.sdump",
   "size" : 8,
   "source_file" : "system/core/libutils/binder/include/utils/RefBase.h",
   "vtable_components" :
   [
    {
     "kind" : "offset_to_top"
    },
    {
     "kind" : "rtti",
     "mangled_component_name" : "_ZTIN7android16ReferenceRenamerE"
    },
    {
     "is_pure" : true,
     "mangled_component_name" : "_ZNK7android16ReferenceRenamerclEm"
    }
   ]
  },
  {
   "alignment" : 8,
   "base_specifiers" :
   [
    {
     "referenced_type" : "_ZTIN7android10VectorImplE"
    }
   ],
   "linker_set_key" : "_ZTIN7android16SortedVectorImplE",
   "name" : "android::SortedVectorImpl",
   "record_kind" : "class",
   "size" : 40,
   "source_file" : "system/core/libutils/include/utils/VectorImpl.h",
   "vtable_components" :
   [
    {
     "kind" : "offset_to_top"
    },
    {
     "kind" : "rtti",
     "mangled_component_name" : "_ZTIN7android16SortedVectorImplE"
    },
    {
     "kind" : "complete_dtor_pointer",
     "mangled_component_name" : "_ZN7android16SortedVectorImplD1Ev"
    },
    {
     "kind" : "deleting_dtor_pointer",
     "mangled_component_name" : "_ZN7android16SortedVectorImplD0Ev"
    },
    {
     "is_pure" : true,
     "mangled_component_name" : "_ZNK7android10VectorImpl12do_constructEPvm"
    },
    {
     "is_pure" : true,
     "mangled_component_name" : "_ZNK7android10VectorImpl10do_destroyEPvm"
    },
    {
     "is_pure" : true,
     "mangled_component_name" : "_ZNK7android10VectorImpl7do_copyEPvPKvm"
    },
    {
     "is_pure" : true,
     "mangled_component_name" : "_ZNK7android10VectorImpl8do_splatEPvPKvm"
    },
    {
     "is_pure" : true,
     "mangled_component_name" : "_ZNK7android10VectorImpl15do_move_forwardEPvPKvm"
    },
    {
     "is_pure" : true,
     "mangled_component_name" : "_ZNK7android10VectorImpl16do_move_backwardEPvPKvm"
    },
    {
     "is_pure" : true,
     "mangled_component_name" : "_ZNK7android16SortedVectorImpl10do_compareEPKvS2_"
    }
   ]
  },
  {
   "alignment" : 8,
   "base_specifiers" :
   [
    {
     "referenced_type" : "_ZTIN7android10VectorImplE#ODR:out/soong/.intermediates/system/core/libutils/binder/libutils_binder/android_vendor_arm64_armv8-a_cortex-a53_static_afdo-libutils/obj/system/core/libutils/binder/RefBase.sdump"
    }
   ],
   "linker_set_key" : "_ZTIN7android16SortedVectorImplE",
   "name" : "android::SortedVectorImpl",
   "record_kind" : "class",
   "self_type" : "_ZTIN7android16SortedVectorImplE#ODR:out/soong/.intermediates/system/core/libutils/binder/libutils_binder/android_vendor_arm64_armv8-a_cortex-a53_static_afdo-libutils/obj/system/core/libutils/binder/RefBase.sdump",
   "size" : 40,
   "source_file" : "system/core/libutils/binder/include/utils/VectorImpl.h",
   "vtable_components" :
   [
    {
     "kind" : "offset_to_top"
    },
    {
     "kind" : "rtti",
     "mangled_component_name" : "_ZTIN7android16SortedVectorImplE"
    },
    {
     "kind" : "complete_dtor_pointer",
     "mangled_component_name" : "_ZN7android16SortedVectorImplD1Ev"
    },
    {
     "kind" : "deleting_dtor_pointer",
     "mangled_component_name" : "_ZN7android16SortedVectorImplD0Ev"
    },
    {
     "is_pure" : true,
     "mangled_component_name" : "_ZNK7android10VectorImpl12do_constructEPvm"
    },
    {
     "is_pure" : true,
     "mangled_component_name" : "_ZNK7android10VectorImpl10do_destroyEPvm"
    },
    {
     "is_pure" : true,
     "mangled_component_name" : "_ZNK7android10VectorImpl7do_copyEPvPKvm"
    },
    {
     "is_pure" : true,
     "mangled_component_name" : "_ZNK7android10VectorImpl8do_splatEPvPKvm"
    },
    {
     "is_pure" : true,
     "mangled_component_name" : "_ZNK7android10VectorImpl15do_move_forwardEPvPKvm"
    },
    {
     "is_pure" : true,
     "mangled_component_name" : "_ZNK7android10VectorImpl16do_move_backwardEPvPKvm"
    },
    {
     "is_pure" : true,
     "mangled_component_name" : "_ZNK7android16SortedVectorImpl10do_compareEPKvS2_"
    }
   ]
  },
  {
   "alignment" : 1,
   "base_specifiers" :
   [
    {
     "referenced_type" : "_ZTINSt3__117integral_constantIbLb0EEE"
    }
   ],
   "linker_set_key" : "_ZTIN7android16use_trivial_moveINS_28sysprop_change_callback_infoEEE",
   "name" : "android::use_trivial_move<android::sysprop_change_callback_info>",
   "size" : 1,
   "source_file" : "system/core/libutils/include/utils/TypeHelpers.h",
   "template_args" :
   [
    "_ZTIN7android28sysprop_change_callback_infoE"
   ]
  },
  {
   "alignment" : 1,
   "base_specifiers" :
   [
    {
     "referenced_type" : "_ZTINSt3__117integral_constantIbLb0EEE"
    }
   ],
   "linker_set_key" : "_ZTIN7android16use_trivial_moveINS_6Looper15MessageEnvelopeEEE",
   "name" : "android::use_trivial_move<android::Looper::MessageEnvelope>",
   "size" : 1,
   "source_file" : "system/core/libutils/include/utils/TypeHelpers.h",
   "template_args" :
   [
    "_ZTIN7android6Looper15MessageEnvelopeE"
   ]
  },
  {
   "alignment" : 1,
   "base_specifiers" :
   [
    {
     "referenced_type" : "_ZTINSt3__117integral_constantIbLb0EEE"
    }
   ],
   "linker_set_key" : "_ZTIN7android16use_trivial_moveINS_6Looper8ResponseEEE",
   "name" : "android::use_trivial_move<android::Looper::Response>",
   "size" : 1,
   "source_file" : "system/core/libutils/include/utils/TypeHelpers.h",
   "template_args" :
   [
    "_ZTIN7android6Looper8ResponseE"
   ]
  },
  {
   "alignment" : 8,
   "base_specifiers" :
   [
    {
     "referenced_type" : "_ZTIN7android14MessageHandlerE"
    }
   ],
   "fields" :
   [
    {
     "access" : "private",
     "field_name" : "mHandler",
     "field_offset" : 64,
     "referenced_type" : "_ZTIN7android2wpINS_14MessageHandlerEEE"
    }
   ],
   "linker_set_key" : "_ZTIN7android18WeakMessageHandlerE",
   "name" : "android::WeakMessageHandler",
   "record_kind" : "class",
   "size" : 40,
   "source_file" : "system/core/libutils/include/utils/Looper.h",
   "vtable_components" :
   [
    {
     "component_value" : 24,
     "kind" : "vbase_offset"
    },
    {
     "kind" : "offset_to_top"
    },
    {
     "kind" : "rtti",
     "mangled_component_name" : "_ZTIN7android18WeakMessageHandlerE"
    },
    {
     "kind" : "complete_dtor_pointer",
     "mangled_component_name" : "_ZN7android18WeakMessageHandlerD1Ev"
    },
    {
     "kind" : "deleting_dtor_pointer",
     "mangled_component_name" : "_ZN7android18WeakMessageHandlerD0Ev"
    },
    {
     "mangled_component_name" : "_ZN7android18WeakMessageHandler13handleMessageERKNS_7MessageE"
    },
    {
     "kind" : "vcall_offset"
    },
    {
     "kind" : "vcall_offset"
    },
    {
     "kind" : "vcall_offset"
    },
    {
     "kind" : "vcall_offset"
    },
    {
     "component_value" : -24,
     "kind" : "vcall_offset"
    },
    {
     "component_value" : -24,
     "kind" : "offset_to_top"
    },
    {
     "kind" : "rtti",
     "mangled_component_name" : "_ZTIN7android18WeakMessageHandlerE"
    },
    {
     "kind" : "complete_dtor_pointer",
     "mangled_component_name" : "_ZTv0_n24_N7android18WeakMessageHandlerD1Ev"
    },
    {
     "kind" : "deleting_dtor_pointer",
     "mangled_component_name" : "_ZTv0_n24_N7android18WeakMessageHandlerD0Ev"
    },
    {
     "mangled_component_name" : "_ZN7android7RefBase10onFirstRefEv"
    },
    {
     "mangled_component_name" : "_ZN7android7RefBase15onLastStrongRefEPKv"
    },
    {
     "mangled_component_name" : "_ZN7android7RefBase20onIncStrongAttemptedEjPKv"
    },
    {
     "mangled_component_name" : "_ZN7android7RefBase13onLastWeakRefEPKv"
    }
   ]
  },
  {
   "alignment" : 1,
   "linker_set_key" : "_ZTIN7android18trait_trivial_copyINS_28sysprop_change_callback_infoEEE",
   "name" : "android::trait_trivial_copy<android::sysprop_change_callback_info>",
   "size" : 1,
   "source_file" : "system/core/libutils/include/utils/TypeHelpers.h",
   "template_args" :
   [
    "_ZTIN7android28sysprop_change_callback_infoE"
   ]
  },
  {
   "alignment" : 1,
   "linker_set_key" : "_ZTIN7android18trait_trivial_copyINS_6Looper15MessageEnvelopeEEE",
   "name" : "android::trait_trivial_copy<android::Looper::MessageEnvelope>",
   "size" : 1,
   "source_file" : "system/core/libutils/include/utils/TypeHelpers.h",
   "template_args" :
   [
    "_ZTIN7android6Looper15MessageEnvelopeE"
   ]
  },
  {
   "alignment" : 1,
   "linker_set_key" : "_ZTIN7android18trait_trivial_copyINS_6Looper8ResponseEEE",
   "name" : "android::trait_trivial_copy<android::Looper::Response>",
   "size" : 1,
   "source_file" : "system/core/libutils/include/utils/TypeHelpers.h",
   "template_args" :
   [
    "_ZTIN7android6Looper8ResponseE"
   ]
  },
  {
   "alignment" : 1,
   "linker_set_key" : "_ZTIN7android18trait_trivial_copyIbEE",
   "name" : "android::trait_trivial_copy<bool>",
   "size" : 1,
   "source_file" : "system/core/libutils/include/utils/TypeHelpers.h",
   "template_args" :
   [
    "_ZTIb"
   ]
  },
  {
   "alignment" : 1,
   "linker_set_key" : "_ZTIN7android18trait_trivial_copyIbEE",
   "name" : "android::trait_trivial_copy<bool>",
   "self_type" : "_ZTIN7android18trait_trivial_copyIbEE#ODR:out/soong/.intermediates/system/core/libutils/binder/libutils_binder/android_vendor_arm64_armv8-a_cortex-a53_static_afdo-libutils/obj/system/core/libutils/binder/RefBase.sdump",
   "size" : 1,
   "source_file" : "system/core/libutils/binder/include/utils/TypeHelpers.h",
   "template_args" :
   [
    "_ZTIb"
   ]
  },
  {
   "alignment" : 1,
   "linker_set_key" : "_ZTIN7android18trait_trivial_copyIcEE",
   "name" : "android::trait_trivial_copy<char>",
   "size" : 1,
   "source_file" : "system/core/libutils/include/utils/TypeHelpers.h",
   "template_args" :
   [
    "_ZTIc"
   ]
  },
  {
   "alignment" : 1,
   "linker_set_key" : "_ZTIN7android18trait_trivial_copyIcEE",
   "name" : "android::trait_trivial_copy<char>",
   "self_type" : "_ZTIN7android18trait_trivial_copyIcEE#ODR:out/soong/.intermediates/system/core/libutils/binder/libutils_binder/android_vendor_arm64_armv8-a_cortex-a53_static_afdo-libutils/obj/system/core/libutils/binder/RefBase.sdump",
   "size" : 1,
   "source_file" : "system/core/libutils/binder/include/utils/TypeHelpers.h",
   "template_args" :
   [
    "_ZTIc"
   ]
  },
  {
   "alignment" : 1,
   "linker_set_key" : "_ZTIN7android18trait_trivial_copyIdEE",
   "name" : "android::trait_trivial_copy<double>",
   "size" : 1,
   "source_file" : "system/core/libutils/include/utils/TypeHelpers.h",
   "template_args" :
   [
    "_ZTId"
   ]
  },
  {
   "alignment" : 1,
   "linker_set_key" : "_ZTIN7android18trait_trivial_copyIdEE",
   "name" : "android::trait_trivial_copy<double>",
   "self_type" : "_ZTIN7android18trait_trivial_copyIdEE#ODR:out/soong/.intermediates/system/core/libutils/binder/libutils_binder/android_vendor_arm64_armv8-a_cortex-a53_static_afdo-libutils/obj/system/core/libutils/binder/RefBase.sdump",
   "size" : 1,
   "source_file" : "system/core/libutils/binder/include/utils/TypeHelpers.h",
   "template_args" :
   [
    "_ZTId"
   ]
  },
  {
   "alignment" : 1,
   "linker_set_key" : "_ZTIN7android18trait_trivial_copyIfEE",
   "name" : "android::trait_trivial_copy<float>",
   "size" : 1,
   "source_file" : "system/core/libutils/include/utils/TypeHelpers.h",
   "template_args" :
   [
    "_ZTIf"
   ]
  },
  {
   "alignment" : 1,
   "linker_set_key" : "_ZTIN7android18trait_trivial_copyIfEE",
   "name" : "android::trait_trivial_copy<float>",
   "self_type" : "_ZTIN7android18trait_trivial_copyIfEE#ODR:out/soong/.intermediates/system/core/libutils/binder/libutils_binder/android_vendor_arm64_armv8-a_cortex-a53_static_afdo-libutils/obj/system/core/libutils/binder/RefBase.sdump",
   "size" : 1,
   "source_file" : "system/core/libutils/binder/include/utils/TypeHelpers.h",
   "template_args" :
   [
    "_ZTIf"
   ]
  },
  {
   "alignment" : 1,
   "linker_set_key" : "_ZTIN7android18trait_trivial_copyIhEE",
   "name" : "android::trait_trivial_copy<unsigned char>",
   "size" : 1,
   "source_file" : "system/core/libutils/include/utils/TypeHelpers.h",
   "template_args" :
   [
    "_ZTIh"
   ]
  },
  {
   "alignment" : 1,
   "linker_set_key" : "_ZTIN7android18trait_trivial_copyIhEE",
   "name" : "android::trait_trivial_copy<unsigned char>",
   "self_type" : "_ZTIN7android18trait_trivial_copyIhEE#ODR:out/soong/.intermediates/system/core/libutils/binder/libutils_binder/android_vendor_arm64_armv8-a_cortex-a53_static_afdo-libutils/obj/system/core/libutils/binder/RefBase.sdump",
   "size" : 1,
   "source_file" : "system/core/libutils/binder/include/utils/TypeHelpers.h",
   "template_args" :
   [
    "_ZTIh"
   ]
  },
  {
   "alignment" : 1,
   "linker_set_key" : "_ZTIN7android18trait_trivial_copyIiEE",
   "name" : "android::trait_trivial_copy<int>",
   "size" : 1,
   "source_file" : "system/core/libutils/include/utils/TypeHelpers.h",
   "template_args" :
   [
    "_ZTIi"
   ]
  },
  {
   "alignment" : 1,
   "linker_set_key" : "_ZTIN7android18trait_trivial_copyIiEE",
   "name" : "android::trait_trivial_copy<int>",
   "self_type" : "_ZTIN7android18trait_trivial_copyIiEE#ODR:out/soong/.intermediates/system/core/libutils/binder/libutils_binder/android_vendor_arm64_armv8-a_cortex-a53_static_afdo-libutils/obj/system/core/libutils/binder/RefBase.sdump",
   "size" : 1,
   "source_file" : "system/core/libutils/binder/include/utils/TypeHelpers.h",
   "template_args" :
   [
    "_ZTIi"
   ]
  },
  {
   "alignment" : 1,
   "linker_set_key" : "_ZTIN7android18trait_trivial_copyIjEE",
   "name" : "android::trait_trivial_copy<unsigned int>",
   "size" : 1,
   "source_file" : "system/core/libutils/include/utils/TypeHelpers.h",
   "template_args" :
   [
    "_ZTIj"
   ]
  },
  {
   "alignment" : 1,
   "linker_set_key" : "_ZTIN7android18trait_trivial_copyIjEE",
   "name" : "android::trait_trivial_copy<unsigned int>",
   "self_type" : "_ZTIN7android18trait_trivial_copyIjEE#ODR:out/soong/.intermediates/system/core/libutils/binder/libutils_binder/android_vendor_arm64_armv8-a_cortex-a53_static_afdo-libutils/obj/system/core/libutils/binder/RefBase.sdump",
   "size" : 1,
   "source_file" : "system/core/libutils/binder/include/utils/TypeHelpers.h",
   "template_args" :
   [
    "_ZTIj"
   ]
  },
  {
   "alignment" : 1,
   "linker_set_key" : "_ZTIN7android18trait_trivial_copyIlEE",
   "name" : "android::trait_trivial_copy<long>",
   "size" : 1,
   "source_file" : "system/core/libutils/include/utils/TypeHelpers.h",
   "template_args" :
   [
    "_ZTIl"
   ]
  },
  {
   "alignment" : 1,
   "linker_set_key" : "_ZTIN7android18trait_trivial_copyIlEE",
   "name" : "android::trait_trivial_copy<long>",
   "self_type" : "_ZTIN7android18trait_trivial_copyIlEE#ODR:out/soong/.intermediates/system/core/libutils/binder/libutils_binder/android_vendor_arm64_armv8-a_cortex-a53_static_afdo-libutils/obj/system/core/libutils/binder/RefBase.sdump",
   "size" : 1,
   "source_file" : "system/core/libutils/binder/include/utils/TypeHelpers.h",
   "template_args" :
   [
    "_ZTIl"
   ]
  },
  {
   "alignment" : 1,
   "linker_set_key" : "_ZTIN7android18trait_trivial_copyImEE",
   "name" : "android::trait_trivial_copy<unsigned long>",
   "size" : 1,
   "source_file" : "system/core/libutils/include/utils/TypeHelpers.h",
   "template_args" :
   [
    "_ZTIm"
   ]
  },
  {
   "alignment" : 1,
   "linker_set_key" : "_ZTIN7android18trait_trivial_copyImEE",
   "name" : "android::trait_trivial_copy<unsigned long>",
   "self_type" : "_ZTIN7android18trait_trivial_copyImEE#ODR:out/soong/.intermediates/system/core/libutils/binder/libutils_binder/android_vendor_arm64_armv8-a_cortex-a53_static_afdo-libutils/obj/system/core/libutils/binder/RefBase.sdump",
   "size" : 1,
   "source_file" : "system/core/libutils/binder/include/utils/TypeHelpers.h",
   "template_args" :
   [
    "_ZTIm"
   ]
  },
  {
   "alignment" : 1,
   "linker_set_key" : "_ZTIN7android18trait_trivial_copyIsEE",
   "name" : "android::trait_trivial_copy<short>",
   "size" : 1,
   "source_file" : "system/core/libutils/include/utils/TypeHelpers.h",
   "template_args" :
   [
    "_ZTIs"
   ]
  },
  {
   "alignment" : 1,
   "linker_set_key" : "_ZTIN7android18trait_trivial_copyIsEE",
   "name" : "android::trait_trivial_copy<short>",
   "self_type" : "_ZTIN7android18trait_trivial_copyIsEE#ODR:out/soong/.intermediates/system/core/libutils/binder/libutils_binder/android_vendor_arm64_armv8-a_cortex-a53_static_afdo-libutils/obj/system/core/libutils/binder/RefBase.sdump",
   "size" : 1,
   "source_file" : "system/core/libutils/binder/include/utils/TypeHelpers.h",
   "template_args" :
   [
    "_ZTIs"
   ]
  },
  {
   "alignment" : 1,
   "linker_set_key" : "_ZTIN7android18trait_trivial_copyItEE",
   "name" : "android::trait_trivial_copy<unsigned short>",
   "size" : 1,
   "source_file" : "system/core/libutils/include/utils/TypeHelpers.h",
   "template_args" :
   [
    "_ZTIt"
   ]
  },
  {
   "alignment" : 1,
   "linker_set_key" : "_ZTIN7android18trait_trivial_copyItEE",
   "name" : "android::trait_trivial_copy<unsigned short>",
   "self_type" : "_ZTIN7android18trait_trivial_copyItEE#ODR:out/soong/.intermediates/system/core/libutils/binder/libutils_binder/android_vendor_arm64_armv8-a_cortex-a53_static_afdo-libutils/obj/system/core/libutils/binder/RefBase.sdump",
   "size" : 1,
   "source_file" : "system/core/libutils/binder/include/utils/TypeHelpers.h",
   "template_args" :
   [
    "_ZTIt"
   ]
  },
  {
   "alignment" : 1,
   "linker_set_key" : "_ZTIN7android18trait_trivial_copyIvEE",
   "name" : "android::trait_trivial_copy<void>",
   "size" : 1,
   "source_file" : "system/core/libutils/include/utils/TypeHelpers.h",
   "template_args" :
   [
    "_ZTIv"
   ]
  },
  {
   "alignment" : 1,
   "linker_set_key" : "_ZTIN7android18trait_trivial_copyIvEE",
   "name" : "android::trait_trivial_copy<void>",
   "self_type" : "_ZTIN7android18trait_trivial_copyIvEE#ODR:out/soong/.intermediates/system/core/libutils/binder/libutils_binder/android_vendor_arm64_armv8-a_cortex-a53_static_afdo-libutils/obj/system/core/libutils/binder/RefBase.sdump",
   "size" : 1,
   "source_file" : "system/core/libutils/binder/include/utils/TypeHelpers.h",
   "template_args" :
   [
    "_ZTIv"
   ]
  },
  {
   "alignment" : 1,
   "linker_set_key" : "_ZTIN7android18trait_trivial_copyIxEE",
   "name" : "android::trait_trivial_copy<long long>",
   "size" : 1,
   "source_file" : "system/core/libutils/include/utils/TypeHelpers.h",
   "template_args" :
   [
    "_ZTIx"
   ]
  },
  {
   "alignment" : 1,
   "linker_set_key" : "_ZTIN7android18trait_trivial_copyIxEE",
   "name" : "android::trait_trivial_copy<long long>",
   "self_type" : "_ZTIN7android18trait_trivial_copyIxEE#ODR:out/soong/.intermediates/system/core/libutils/binder/libutils_binder/android_vendor_arm64_armv8-a_cortex-a53_static_afdo-libutils/obj/system/core/libutils/binder/RefBase.sdump",
   "size" : 1,
   "source_file" : "system/core/libutils/binder/include/utils/TypeHelpers.h",
   "template_args" :
   [
    "_ZTIx"
   ]
  },
  {
   "alignment" : 1,
   "linker_set_key" : "_ZTIN7android18trait_trivial_copyIyEE",
   "name" : "android::trait_trivial_copy<unsigned long long>",
   "size" : 1,
   "source_file" : "system/core/libutils/include/utils/TypeHelpers.h",
   "template_args" :
   [
    "_ZTIy"
   ]
  },
  {
   "alignment" : 1,
   "linker_set_key" : "_ZTIN7android18trait_trivial_copyIyEE",
   "name" : "android::trait_trivial_copy<unsigned long long>",
   "self_type" : "_ZTIN7android18trait_trivial_copyIyEE#ODR:out/soong/.intermediates/system/core/libutils/binder/libutils_binder/android_vendor_arm64_armv8-a_cortex-a53_static_afdo-libutils/obj/system/core/libutils/binder/RefBase.sdump",
   "size" : 1,
   "source_file" : "system/core/libutils/binder/include/utils/TypeHelpers.h",
   "template_args" :
   [
    "_ZTIy"
   ]
  },
  {
   "alignment" : 1,
   "linker_set_key" : "_ZTIN7android18trait_trivial_ctorINS_28sysprop_change_callback_infoEEE",
   "name" : "android::trait_trivial_ctor<android::sysprop_change_callback_info>",
   "size" : 1,
   "source_file" : "system/core/libutils/include/utils/TypeHelpers.h",
   "template_args" :
   [
    "_ZTIN7android28sysprop_change_callback_infoE"
   ]
  },
  {
   "alignment" : 1,
   "linker_set_key" : "_ZTIN7android18trait_trivial_ctorINS_6Looper15MessageEnvelopeEEE",
   "name" : "android::trait_trivial_ctor<android::Looper::MessageEnvelope>",
   "size" : 1,
   "source_file" : "system/core/libutils/include/utils/TypeHelpers.h",
   "template_args" :
   [
    "_ZTIN7android6Looper15MessageEnvelopeE"
   ]
  },
  {
   "alignment" : 1,
   "linker_set_key" : "_ZTIN7android18trait_trivial_ctorINS_6Looper8ResponseEEE",
   "name" : "android::trait_trivial_ctor<android::Looper::Response>",
   "size" : 1,
   "source_file" : "system/core/libutils/include/utils/TypeHelpers.h",
   "template_args" :
   [
    "_ZTIN7android6Looper8ResponseE"
   ]
  },
  {
   "alignment" : 1,
   "linker_set_key" : "_ZTIN7android18trait_trivial_ctorIbEE",
   "name" : "android::trait_trivial_ctor<bool>",
   "size" : 1,
   "source_file" : "system/core/libutils/include/utils/TypeHelpers.h",
   "template_args" :
   [
    "_ZTIb"
   ]
  },
  {
   "alignment" : 1,
   "linker_set_key" : "_ZTIN7android18trait_trivial_ctorIbEE",
   "name" : "android::trait_trivial_ctor<bool>",
   "self_type" : "_ZTIN7android18trait_trivial_ctorIbEE#ODR:out/soong/.intermediates/system/core/libutils/binder/libutils_binder/android_vendor_arm64_armv8-a_cortex-a53_static_afdo-libutils/obj/system/core/libutils/binder/RefBase.sdump",
   "size" : 1,
   "source_file" : "system/core/libutils/binder/include/utils/TypeHelpers.h",
   "template_args" :
   [
    "_ZTIb"
   ]
  },
  {
   "alignment" : 1,
   "linker_set_key" : "_ZTIN7android18trait_trivial_ctorIcEE",
   "name" : "android::trait_trivial_ctor<char>",
   "size" : 1,
   "source_file" : "system/core/libutils/include/utils/TypeHelpers.h",
   "template_args" :
   [
    "_ZTIc"
   ]
  },
  {
   "alignment" : 1,
   "linker_set_key" : "_ZTIN7android18trait_trivial_ctorIcEE",
   "name" : "android::trait_trivial_ctor<char>",
   "self_type" : "_ZTIN7android18trait_trivial_ctorIcEE#ODR:out/soong/.intermediates/system/core/libutils/binder/libutils_binder/android_vendor_arm64_armv8-a_cortex-a53_static_afdo-libutils/obj/system/core/libutils/binder/RefBase.sdump",
   "size" : 1,
   "source_file" : "system/core/libutils/binder/include/utils/TypeHelpers.h",
   "template_args" :
   [
    "_ZTIc"
   ]
  },
  {
   "alignment" : 1,
   "linker_set_key" : "_ZTIN7android18trait_trivial_ctorIdEE",
   "name" : "android::trait_trivial_ctor<double>",
   "size" : 1,
   "source_file" : "system/core/libutils/include/utils/TypeHelpers.h",
   "template_args" :
   [
    "_ZTId"
   ]
  },
  {
   "alignment" : 1,
   "linker_set_key" : "_ZTIN7android18trait_trivial_ctorIdEE",
   "name" : "android::trait_trivial_ctor<double>",
   "self_type" : "_ZTIN7android18trait_trivial_ctorIdEE#ODR:out/soong/.intermediates/system/core/libutils/binder/libutils_binder/android_vendor_arm64_armv8-a_cortex-a53_static_afdo-libutils/obj/system/core/libutils/binder/RefBase.sdump",
   "size" : 1,
   "source_file" : "system/core/libutils/binder/include/utils/TypeHelpers.h",
   "template_args" :
   [
    "_ZTId"
   ]
  },
  {
   "alignment" : 1,
   "linker_set_key" : "_ZTIN7android18trait_trivial_ctorIfEE",
   "name" : "android::trait_trivial_ctor<float>",
   "size" : 1,
   "source_file" : "system/core/libutils/include/utils/TypeHelpers.h",
   "template_args" :
   [
    "_ZTIf"
   ]
  },
  {
   "alignment" : 1,
   "linker_set_key" : "_ZTIN7android18trait_trivial_ctorIfEE",
   "name" : "android::trait_trivial_ctor<float>",
   "self_type" : "_ZTIN7android18trait_trivial_ctorIfEE#ODR:out/soong/.intermediates/system/core/libutils/binder/libutils_binder/android_vendor_arm64_armv8-a_cortex-a53_static_afdo-libutils/obj/system/core/libutils/binder/RefBase.sdump",
   "size" : 1,
   "source_file" : "system/core/libutils/binder/include/utils/TypeHelpers.h",
   "template_args" :
   [
    "_ZTIf"
   ]
  },
  {
   "alignment" : 1,
   "linker_set_key" : "_ZTIN7android18trait_trivial_ctorIhEE",
   "name" : "android::trait_trivial_ctor<unsigned char>",
   "size" : 1,
   "source_file" : "system/core/libutils/include/utils/TypeHelpers.h",
   "template_args" :
   [
    "_ZTIh"
   ]
  },
  {
   "alignment" : 1,
   "linker_set_key" : "_ZTIN7android18trait_trivial_ctorIhEE",
   "name" : "android::trait_trivial_ctor<unsigned char>",
   "self_type" : "_ZTIN7android18trait_trivial_ctorIhEE#ODR:out/soong/.intermediates/system/core/libutils/binder/libutils_binder/android_vendor_arm64_armv8-a_cortex-a53_static_afdo-libutils/obj/system/core/libutils/binder/RefBase.sdump",
   "size" : 1,
   "source_file" : "system/core/libutils/binder/include/utils/TypeHelpers.h",
   "template_args" :
   [
    "_ZTIh"
   ]
  },
  {
   "alignment" : 1,
   "linker_set_key" : "_ZTIN7android18trait_trivial_ctorIiEE",
   "name" : "android::trait_trivial_ctor<int>",
   "size" : 1,
   "source_file" : "system/core/libutils/include/utils/TypeHelpers.h",
   "template_args" :
   [
    "_ZTIi"
   ]
  },
  {
   "alignment" : 1,
   "linker_set_key" : "_ZTIN7android18trait_trivial_ctorIiEE",
   "name" : "android::trait_trivial_ctor<int>",
   "self_type" : "_ZTIN7android18trait_trivial_ctorIiEE#ODR:out/soong/.intermediates/system/core/libutils/binder/libutils_binder/android_vendor_arm64_armv8-a_cortex-a53_static_afdo-libutils/obj/system/core/libutils/binder/RefBase.sdump",
   "size" : 1,
   "source_file" : "system/core/libutils/binder/include/utils/TypeHelpers.h",
   "template_args" :
   [
    "_ZTIi"
   ]
  },
  {
   "alignment" : 1,
   "linker_set_key" : "_ZTIN7android18trait_trivial_ctorIjEE",
   "name" : "android::trait_trivial_ctor<unsigned int>",
   "size" : 1,
   "source_file" : "system/core/libutils/include/utils/TypeHelpers.h",
   "template_args" :
   [
    "_ZTIj"
   ]
  },
  {
   "alignment" : 1,
   "linker_set_key" : "_ZTIN7android18trait_trivial_ctorIjEE",
   "name" : "android::trait_trivial_ctor<unsigned int>",
   "self_type" : "_ZTIN7android18trait_trivial_ctorIjEE#ODR:out/soong/.intermediates/system/core/libutils/binder/libutils_binder/android_vendor_arm64_armv8-a_cortex-a53_static_afdo-libutils/obj/system/core/libutils/binder/RefBase.sdump",
   "size" : 1,
   "source_file" : "system/core/libutils/binder/include/utils/TypeHelpers.h",
   "template_args" :
   [
    "_ZTIj"
   ]
  },
  {
   "alignment" : 1,
   "linker_set_key" : "_ZTIN7android18trait_trivial_ctorIlEE",
   "name" : "android::trait_trivial_ctor<long>",
   "size" : 1,
   "source_file" : "system/core/libutils/include/utils/TypeHelpers.h",
   "template_args" :
   [
    "_ZTIl"
   ]
  },
  {
   "alignment" : 1,
   "linker_set_key" : "_ZTIN7android18trait_trivial_ctorIlEE",
   "name" : "android::trait_trivial_ctor<long>",
   "self_type" : "_ZTIN7android18trait_trivial_ctorIlEE#ODR:out/soong/.intermediates/system/core/libutils/binder/libutils_binder/android_vendor_arm64_armv8-a_cortex-a53_static_afdo-libutils/obj/system/core/libutils/binder/RefBase.sdump",
   "size" : 1,
   "source_file" : "system/core/libutils/binder/include/utils/TypeHelpers.h",
   "template_args" :
   [
    "_ZTIl"
   ]
  },
  {
   "alignment" : 1,
   "linker_set_key" : "_ZTIN7android18trait_trivial_ctorImEE",
   "name" : "android::trait_trivial_ctor<unsigned long>",
   "size" : 1,
   "source_file" : "system/core/libutils/include/utils/TypeHelpers.h",
   "template_args" :
   [
    "_ZTIm"
   ]
  },
  {
   "alignment" : 1,
   "linker_set_key" : "_ZTIN7android18trait_trivial_ctorImEE",
   "name" : "android::trait_trivial_ctor<unsigned long>",
   "self_type" : "_ZTIN7android18trait_trivial_ctorImEE#ODR:out/soong/.intermediates/system/core/libutils/binder/libutils_binder/android_vendor_arm64_armv8-a_cortex-a53_static_afdo-libutils/obj/system/core/libutils/binder/RefBase.sdump",
   "size" : 1,
   "source_file" : "system/core/libutils/binder/include/utils/TypeHelpers.h",
   "template_args" :
   [
    "_ZTIm"
   ]
  },
  {
   "alignment" : 1,
   "linker_set_key" : "_ZTIN7android18trait_trivial_ctorIsEE",
   "name" : "android::trait_trivial_ctor<short>",
   "size" : 1,
   "source_file" : "system/core/libutils/include/utils/TypeHelpers.h",
   "template_args" :
   [
    "_ZTIs"
   ]
  },
  {
   "alignment" : 1,
   "linker_set_key" : "_ZTIN7android18trait_trivial_ctorIsEE",
   "name" : "android::trait_trivial_ctor<short>",
   "self_type" : "_ZTIN7android18trait_trivial_ctorIsEE#ODR:out/soong/.intermediates/system/core/libutils/binder/libutils_binder/android_vendor_arm64_armv8-a_cortex-a53_static_afdo-libutils/obj/system/core/libutils/binder/RefBase.sdump",
   "size" : 1,
   "source_file" : "system/core/libutils/binder/include/utils/TypeHelpers.h",
   "template_args" :
   [
    "_ZTIs"
   ]
  },
  {
   "alignment" : 1,
   "linker_set_key" : "_ZTIN7android18trait_trivial_ctorItEE",
   "name" : "android::trait_trivial_ctor<unsigned short>",
   "size" : 1,
   "source_file" : "system/core/libutils/include/utils/TypeHelpers.h",
   "template_args" :
   [
    "_ZTIt"
   ]
  },
  {
   "alignment" : 1,
   "linker_set_key" : "_ZTIN7android18trait_trivial_ctorItEE",
   "name" : "android::trait_trivial_ctor<unsigned short>",
   "self_type" : "_ZTIN7android18trait_trivial_ctorItEE#ODR:out/soong/.intermediates/system/core/libutils/binder/libutils_binder/android_vendor_arm64_armv8-a_cortex-a53_static_afdo-libutils/obj/system/core/libutils/binder/RefBase.sdump",
   "size" : 1,
   "source_file" : "system/core/libutils/binder/include/utils/TypeHelpers.h",
   "template_args" :
   [
    "_ZTIt"
   ]
  },
  {
   "alignment" : 1,
   "linker_set_key" : "_ZTIN7android18trait_trivial_ctorIvEE",
   "name" : "android::trait_trivial_ctor<void>",
   "size" : 1,
   "source_file" : "system/core/libutils/include/utils/TypeHelpers.h",
   "template_args" :
   [
    "_ZTIv"
   ]
  },
  {
   "alignment" : 1,
   "linker_set_key" : "_ZTIN7android18trait_trivial_ctorIvEE",
   "name" : "android::trait_trivial_ctor<void>",
   "self_type" : "_ZTIN7android18trait_trivial_ctorIvEE#ODR:out/soong/.intermediates/system/core/libutils/binder/libutils_binder/android_vendor_arm64_armv8-a_cortex-a53_static_afdo-libutils/obj/system/core/libutils/binder/RefBase.sdump",
   "size" : 1,
   "source_file" : "system/core/libutils/binder/include/utils/TypeHelpers.h",
   "template_args" :
   [
    "_ZTIv"
   ]
  },
  {
   "alignment" : 1,
   "linker_set_key" : "_ZTIN7android18trait_trivial_ctorIxEE",
   "name" : "android::trait_trivial_ctor<long long>",
   "size" : 1,
   "source_file" : "system/core/libutils/include/utils/TypeHelpers.h",
   "template_args" :
   [
    "_ZTIx"
   ]
  },
  {
   "alignment" : 1,
   "linker_set_key" : "_ZTIN7android18trait_trivial_ctorIxEE",
   "name" : "android::trait_trivial_ctor<long long>",
   "self_type" : "_ZTIN7android18trait_trivial_ctorIxEE#ODR:out/soong/.intermediates/system/core/libutils/binder/libutils_binder/android_vendor_arm64_armv8-a_cortex-a53_static_afdo-libutils/obj/system/core/libutils/binder/RefBase.sdump",
   "size" : 1,
   "source_file" : "system/core/libutils/binder/include/utils/TypeHelpers.h",
   "template_args" :
   [
    "_ZTIx"
   ]
  },
  {
   "alignment" : 1,
   "linker_set_key" : "_ZTIN7android18trait_trivial_ctorIyEE",
   "name" : "android::trait_trivial_ctor<unsigned long long>",
   "size" : 1,
   "source_file" : "system/core/libutils/include/utils/TypeHelpers.h",
   "template_args" :
   [
    "_ZTIy"
   ]
  },
  {
   "alignment" : 1,
   "linker_set_key" : "_ZTIN7android18trait_trivial_ctorIyEE",
   "name" : "android::trait_trivial_ctor<unsigned long long>",
   "self_type" : "_ZTIN7android18trait_trivial_ctorIyEE#ODR:out/soong/.intermediates/system/core/libutils/binder/libutils_binder/android_vendor_arm64_armv8-a_cortex-a53_static_afdo-libutils/obj/system/core/libutils/binder/RefBase.sdump",
   "size" : 1,
   "source_file" : "system/core/libutils/binder/include/utils/TypeHelpers.h",
   "template_args" :
   [
    "_ZTIy"
   ]
  },
  {
   "alignment" : 1,
   "linker_set_key" : "_ZTIN7android18trait_trivial_dtorINS_28sysprop_change_callback_infoEEE",
   "name" : "android::trait_trivial_dtor<android::sysprop_change_callback_info>",
   "size" : 1,
   "source_file" : "system/core/libutils/include/utils/TypeHelpers.h",
   "template_args" :
   [
    "_ZTIN7android28sysprop_change_callback_infoE"
   ]
  },
  {
   "alignment" : 1,
   "linker_set_key" : "_ZTIN7android18trait_trivial_dtorINS_6Looper15MessageEnvelopeEEE",
   "name" : "android::trait_trivial_dtor<android::Looper::MessageEnvelope>",
   "size" : 1,
   "source_file" : "system/core/libutils/include/utils/TypeHelpers.h",
   "template_args" :
   [
    "_ZTIN7android6Looper15MessageEnvelopeE"
   ]
  },
  {
   "alignment" : 1,
   "linker_set_key" : "_ZTIN7android18trait_trivial_dtorINS_6Looper8ResponseEEE",
   "name" : "android::trait_trivial_dtor<android::Looper::Response>",
   "size" : 1,
   "source_file" : "system/core/libutils/include/utils/TypeHelpers.h",
   "template_args" :
   [
    "_ZTIN7android6Looper8ResponseE"
   ]
  },
  {
   "alignment" : 1,
   "linker_set_key" : "_ZTIN7android18trait_trivial_dtorIbEE",
   "name" : "android::trait_trivial_dtor<bool>",
   "size" : 1,
   "source_file" : "system/core/libutils/include/utils/TypeHelpers.h",
   "template_args" :
   [
    "_ZTIb"
   ]
  },
  {
   "alignment" : 1,
   "linker_set_key" : "_ZTIN7android18trait_trivial_dtorIbEE",
   "name" : "android::trait_trivial_dtor<bool>",
   "self_type" : "_ZTIN7android18trait_trivial_dtorIbEE#ODR:out/soong/.intermediates/system/core/libutils/binder/libutils_binder/android_vendor_arm64_armv8-a_cortex-a53_static_afdo-libutils/obj/system/core/libutils/binder/RefBase.sdump",
   "size" : 1,
   "source_file" : "system/core/libutils/binder/include/utils/TypeHelpers.h",
   "template_args" :
   [
    "_ZTIb"
   ]
  },
  {
   "alignment" : 1,
   "linker_set_key" : "_ZTIN7android18trait_trivial_dtorIcEE",
   "name" : "android::trait_trivial_dtor<char>",
   "size" : 1,
   "source_file" : "system/core/libutils/include/utils/TypeHelpers.h",
   "template_args" :
   [
    "_ZTIc"
   ]
  },
  {
   "alignment" : 1,
   "linker_set_key" : "_ZTIN7android18trait_trivial_dtorIcEE",
   "name" : "android::trait_trivial_dtor<char>",
   "self_type" : "_ZTIN7android18trait_trivial_dtorIcEE#ODR:out/soong/.intermediates/system/core/libutils/binder/libutils_binder/android_vendor_arm64_armv8-a_cortex-a53_static_afdo-libutils/obj/system/core/libutils/binder/RefBase.sdump",
   "size" : 1,
   "source_file" : "system/core/libutils/binder/include/utils/TypeHelpers.h",
   "template_args" :
   [
    "_ZTIc"
   ]
  },
  {
   "alignment" : 1,
   "linker_set_key" : "_ZTIN7android18trait_trivial_dtorIdEE",
   "name" : "android::trait_trivial_dtor<double>",
   "size" : 1,
   "source_file" : "system/core/libutils/include/utils/TypeHelpers.h",
   "template_args" :
   [
    "_ZTId"
   ]
  },
  {
   "alignment" : 1,
   "linker_set_key" : "_ZTIN7android18trait_trivial_dtorIdEE",
   "name" : "android::trait_trivial_dtor<double>",
   "self_type" : "_ZTIN7android18trait_trivial_dtorIdEE#ODR:out/soong/.intermediates/system/core/libutils/binder/libutils_binder/android_vendor_arm64_armv8-a_cortex-a53_static_afdo-libutils/obj/system/core/libutils/binder/RefBase.sdump",
   "size" : 1,
   "source_file" : "system/core/libutils/binder/include/utils/TypeHelpers.h",
   "template_args" :
   [
    "_ZTId"
   ]
  },
  {
   "alignment" : 1,
   "linker_set_key" : "_ZTIN7android18trait_trivial_dtorIfEE",
   "name" : "android::trait_trivial_dtor<float>",
   "size" : 1,
   "source_file" : "system/core/libutils/include/utils/TypeHelpers.h",
   "template_args" :
   [
    "_ZTIf"
   ]
  },
  {
   "alignment" : 1,
   "linker_set_key" : "_ZTIN7android18trait_trivial_dtorIfEE",
   "name" : "android::trait_trivial_dtor<float>",
   "self_type" : "_ZTIN7android18trait_trivial_dtorIfEE#ODR:out/soong/.intermediates/system/core/libutils/binder/libutils_binder/android_vendor_arm64_armv8-a_cortex-a53_static_afdo-libutils/obj/system/core/libutils/binder/RefBase.sdump",
   "size" : 1,
   "source_file" : "system/core/libutils/binder/include/utils/TypeHelpers.h",
   "template_args" :
   [
    "_ZTIf"
   ]
  },
  {
   "alignment" : 1,
   "linker_set_key" : "_ZTIN7android18trait_trivial_dtorIhEE",
   "name" : "android::trait_trivial_dtor<unsigned char>",
   "size" : 1,
   "source_file" : "system/core/libutils/include/utils/TypeHelpers.h",
   "template_args" :
   [
    "_ZTIh"
   ]
  },
  {
   "alignment" : 1,
   "linker_set_key" : "_ZTIN7android18trait_trivial_dtorIhEE",
   "name" : "android::trait_trivial_dtor<unsigned char>",
   "self_type" : "_ZTIN7android18trait_trivial_dtorIhEE#ODR:out/soong/.intermediates/system/core/libutils/binder/libutils_binder/android_vendor_arm64_armv8-a_cortex-a53_static_afdo-libutils/obj/system/core/libutils/binder/RefBase.sdump",
   "size" : 1,
   "source_file" : "system/core/libutils/binder/include/utils/TypeHelpers.h",
   "template_args" :
   [
    "_ZTIh"
   ]
  },
  {
   "alignment" : 1,
   "linker_set_key" : "_ZTIN7android18trait_trivial_dtorIiEE",
   "name" : "android::trait_trivial_dtor<int>",
   "size" : 1,
   "source_file" : "system/core/libutils/include/utils/TypeHelpers.h",
   "template_args" :
   [
    "_ZTIi"
   ]
  },
  {
   "alignment" : 1,
   "linker_set_key" : "_ZTIN7android18trait_trivial_dtorIiEE",
   "name" : "android::trait_trivial_dtor<int>",
   "self_type" : "_ZTIN7android18trait_trivial_dtorIiEE#ODR:out/soong/.intermediates/system/core/libutils/binder/libutils_binder/android_vendor_arm64_armv8-a_cortex-a53_static_afdo-libutils/obj/system/core/libutils/binder/RefBase.sdump",
   "size" : 1,
   "source_file" : "system/core/libutils/binder/include/utils/TypeHelpers.h",
   "template_args" :
   [
    "_ZTIi"
   ]
  },
  {
   "alignment" : 1,
   "linker_set_key" : "_ZTIN7android18trait_trivial_dtorIjEE",
   "name" : "android::trait_trivial_dtor<unsigned int>",
   "size" : 1,
   "source_file" : "system/core/libutils/include/utils/TypeHelpers.h",
   "template_args" :
   [
    "_ZTIj"
   ]
  },
  {
   "alignment" : 1,
   "linker_set_key" : "_ZTIN7android18trait_trivial_dtorIjEE",
   "name" : "android::trait_trivial_dtor<unsigned int>",
   "self_type" : "_ZTIN7android18trait_trivial_dtorIjEE#ODR:out/soong/.intermediates/system/core/libutils/binder/libutils_binder/android_vendor_arm64_armv8-a_cortex-a53_static_afdo-libutils/obj/system/core/libutils/binder/RefBase.sdump",
   "size" : 1,
   "source_file" : "system/core/libutils/binder/include/utils/TypeHelpers.h",
   "template_args" :
   [
    "_ZTIj"
   ]
  },
  {
   "alignment" : 1,
   "linker_set_key" : "_ZTIN7android18trait_trivial_dtorIlEE",
   "name" : "android::trait_trivial_dtor<long>",
   "size" : 1,
   "source_file" : "system/core/libutils/include/utils/TypeHelpers.h",
   "template_args" :
   [
    "_ZTIl"
   ]
  },
  {
   "alignment" : 1,
   "linker_set_key" : "_ZTIN7android18trait_trivial_dtorIlEE",
   "name" : "android::trait_trivial_dtor<long>",
   "self_type" : "_ZTIN7android18trait_trivial_dtorIlEE#ODR:out/soong/.intermediates/system/core/libutils/binder/libutils_binder/android_vendor_arm64_armv8-a_cortex-a53_static_afdo-libutils/obj/system/core/libutils/binder/RefBase.sdump",
   "size" : 1,
   "source_file" : "system/core/libutils/binder/include/utils/TypeHelpers.h",
   "template_args" :
   [
    "_ZTIl"
   ]
  },
  {
   "alignment" : 1,
   "linker_set_key" : "_ZTIN7android18trait_trivial_dtorImEE",
   "name" : "android::trait_trivial_dtor<unsigned long>",
   "size" : 1,
   "source_file" : "system/core/libutils/include/utils/TypeHelpers.h",
   "template_args" :
   [
    "_ZTIm"
   ]
  },
  {
   "alignment" : 1,
   "linker_set_key" : "_ZTIN7android18trait_trivial_dtorImEE",
   "name" : "android::trait_trivial_dtor<unsigned long>",
   "self_type" : "_ZTIN7android18trait_trivial_dtorImEE#ODR:out/soong/.intermediates/system/core/libutils/binder/libutils_binder/android_vendor_arm64_armv8-a_cortex-a53_static_afdo-libutils/obj/system/core/libutils/binder/RefBase.sdump",
   "size" : 1,
   "source_file" : "system/core/libutils/binder/include/utils/TypeHelpers.h",
   "template_args" :
   [
    "_ZTIm"
   ]
  },
  {
   "alignment" : 1,
   "linker_set_key" : "_ZTIN7android18trait_trivial_dtorIsEE",
   "name" : "android::trait_trivial_dtor<short>",
   "size" : 1,
   "source_file" : "system/core/libutils/include/utils/TypeHelpers.h",
   "template_args" :
   [
    "_ZTIs"
   ]
  },
  {
   "alignment" : 1,
   "linker_set_key" : "_ZTIN7android18trait_trivial_dtorIsEE",
   "name" : "android::trait_trivial_dtor<short>",
   "self_type" : "_ZTIN7android18trait_trivial_dtorIsEE#ODR:out/soong/.intermediates/system/core/libutils/binder/libutils_binder/android_vendor_arm64_armv8-a_cortex-a53_static_afdo-libutils/obj/system/core/libutils/binder/RefBase.sdump",
   "size" : 1,
   "source_file" : "system/core/libutils/binder/include/utils/TypeHelpers.h",
   "template_args" :
   [
    "_ZTIs"
   ]
  },
  {
   "alignment" : 1,
   "linker_set_key" : "_ZTIN7android18trait_trivial_dtorItEE",
   "name" : "android::trait_trivial_dtor<unsigned short>",
   "size" : 1,
   "source_file" : "system/core/libutils/include/utils/TypeHelpers.h",
   "template_args" :
   [
    "_ZTIt"
   ]
  },
  {
   "alignment" : 1,
   "linker_set_key" : "_ZTIN7android18trait_trivial_dtorItEE",
   "name" : "android::trait_trivial_dtor<unsigned short>",
   "self_type" : "_ZTIN7android18trait_trivial_dtorItEE#ODR:out/soong/.intermediates/system/core/libutils/binder/libutils_binder/android_vendor_arm64_armv8-a_cortex-a53_static_afdo-libutils/obj/system/core/libutils/binder/RefBase.sdump",
   "size" : 1,
   "source_file" : "system/core/libutils/binder/include/utils/TypeHelpers.h",
   "template_args" :
   [
    "_ZTIt"
   ]
  },
  {
   "alignment" : 1,
   "linker_set_key" : "_ZTIN7android18trait_trivial_dtorIvEE",
   "name" : "android::trait_trivial_dtor<void>",
   "size" : 1,
   "source_file" : "system/core/libutils/include/utils/TypeHelpers.h",
   "template_args" :
   [
    "_ZTIv"
   ]
  },
  {
   "alignment" : 1,
   "linker_set_key" : "_ZTIN7android18trait_trivial_dtorIvEE",
   "name" : "android::trait_trivial_dtor<void>",
   "self_type" : "_ZTIN7android18trait_trivial_dtorIvEE#ODR:out/soong/.intermediates/system/core/libutils/binder/libutils_binder/android_vendor_arm64_armv8-a_cortex-a53_static_afdo-libutils/obj/system/core/libutils/binder/RefBase.sdump",
   "size" : 1,
   "source_file" : "system/core/libutils/binder/include/utils/TypeHelpers.h",
   "template_args" :
   [
    "_ZTIv"
   ]
  },
  {
   "alignment" : 1,
   "linker_set_key" : "_ZTIN7android18trait_trivial_dtorIxEE",
   "name" : "android::trait_trivial_dtor<long long>",
   "size" : 1,
   "source_file" : "system/core/libutils/include/utils/TypeHelpers.h",
   "template_args" :
   [
    "_ZTIx"
   ]
  },
  {
   "alignment" : 1,
   "linker_set_key" : "_ZTIN7android18trait_trivial_dtorIxEE",
   "name" : "android::trait_trivial_dtor<long long>",
   "self_type" : "_ZTIN7android18trait_trivial_dtorIxEE#ODR:out/soong/.intermediates/system/core/libutils/binder/libutils_binder/android_vendor_arm64_armv8-a_cortex-a53_static_afdo-libutils/obj/system/core/libutils/binder/RefBase.sdump",
   "size" : 1,
   "source_file" : "system/core/libutils/binder/include/utils/TypeHelpers.h",
   "template_args" :
   [
    "_ZTIx"
   ]
  },
  {
   "alignment" : 1,
   "linker_set_key" : "_ZTIN7android18trait_trivial_dtorIyEE",
   "name" : "android::trait_trivial_dtor<unsigned long long>",
   "size" : 1,
   "source_file" : "system/core/libutils/include/utils/TypeHelpers.h",
   "template_args" :
   [
    "_ZTIy"
   ]
  },
  {
   "alignment" : 1,
   "linker_set_key" : "_ZTIN7android18trait_trivial_dtorIyEE",
   "name" : "android::trait_trivial_dtor<unsigned long long>",
   "self_type" : "_ZTIN7android18trait_trivial_dtorIyEE#ODR:out/soong/.intermediates/system/core/libutils/binder/libutils_binder/android_vendor_arm64_armv8-a_cortex-a53_static_afdo-libutils/obj/system/core/libutils/binder/RefBase.sdump",
   "size" : 1,
   "source_file" : "system/core/libutils/binder/include/utils/TypeHelpers.h",
   "template_args" :
   [
    "_ZTIy"
   ]
  },
  {
   "alignment" : 1,
   "linker_set_key" : "_ZTIN7android18trait_trivial_moveINS_28sysprop_change_callback_infoEEE",
   "name" : "android::trait_trivial_move<android::sysprop_change_callback_info>",
   "size" : 1,
   "source_file" : "system/core/libutils/include/utils/TypeHelpers.h",
   "template_args" :
   [
    "_ZTIN7android28sysprop_change_callback_infoE"
   ]
  },
  {
   "alignment" : 1,
   "linker_set_key" : "_ZTIN7android18trait_trivial_moveINS_6Looper15MessageEnvelopeEEE",
   "name" : "android::trait_trivial_move<android::Looper::MessageEnvelope>",
   "size" : 1,
   "source_file" : "system/core/libutils/include/utils/TypeHelpers.h",
   "template_args" :
   [
    "_ZTIN7android6Looper15MessageEnvelopeE"
   ]
  },
  {
   "alignment" : 1,
   "linker_set_key" : "_ZTIN7android18trait_trivial_moveINS_6Looper8ResponseEEE",
   "name" : "android::trait_trivial_move<android::Looper::Response>",
   "size" : 1,
   "source_file" : "system/core/libutils/include/utils/TypeHelpers.h",
   "template_args" :
   [
    "_ZTIN7android6Looper8ResponseE"
   ]
  },
  {
   "alignment" : 1,
   "linker_set_key" : "_ZTIN7android18trait_trivial_moveINS_7String8EEE",
   "name" : "android::trait_trivial_move<android::String8>",
   "size" : 1,
   "source_file" : "system/core/libutils/include/utils/String8.h",
   "template_args" :
   [
    "_ZTIN7android7String8E"
   ]
  },
  {
   "alignment" : 1,
   "linker_set_key" : "_ZTIN7android18trait_trivial_moveINS_7String8EEE",
   "name" : "android::trait_trivial_move<android::String8>",
   "self_type" : "_ZTIN7android18trait_trivial_moveINS_7String8EEE#ODR:out/soong/.intermediates/system/core/libutils/binder/libutils_binder/android_vendor_arm64_armv8-a_cortex-a53_static_afdo-libutils/obj/system/core/libutils/binder/RefBase.sdump",
   "size" : 1,
   "source_file" : "system/core/libutils/binder/include/utils/String8.h",
   "template_args" :
   [
    "_ZTIN7android7String8E#ODR:out/soong/.intermediates/system/core/libutils/binder/libutils_binder/android_vendor_arm64_armv8-a_cortex-a53_static_afdo-libutils/obj/system/core/libutils/binder/RefBase.sdump"
   ]
  },
  {
   "alignment" : 1,
   "linker_set_key" : "_ZTIN7android18trait_trivial_moveINS_8String16EEE",
   "name" : "android::trait_trivial_move<android::String16>",
   "size" : 1,
   "source_file" : "system/core/libutils/binder/include/utils/String16.h",
   "template_args" :
   [
    "_ZTIN7android8String16E"
   ]
  },
  {
   "alignment" : 1,
   "linker_set_key" : "_ZTIN7android18trait_trivial_moveIbEE",
   "name" : "android::trait_trivial_move<bool>",
   "size" : 1,
   "source_file" : "system/core/libutils/include/utils/TypeHelpers.h",
   "template_args" :
   [
    "_ZTIb"
   ]
  },
  {
   "alignment" : 1,
   "linker_set_key" : "_ZTIN7android18trait_trivial_moveIbEE",
   "name" : "android::trait_trivial_move<bool>",
   "self_type" : "_ZTIN7android18trait_trivial_moveIbEE#ODR:out/soong/.intermediates/system/core/libutils/binder/libutils_binder/android_vendor_arm64_armv8-a_cortex-a53_static_afdo-libutils/obj/system/core/libutils/binder/RefBase.sdump",
   "size" : 1,
   "source_file" : "system/core/libutils/binder/include/utils/TypeHelpers.h",
   "template_args" :
   [
    "_ZTIb"
   ]
  },
  {
   "alignment" : 1,
   "linker_set_key" : "_ZTIN7android18trait_trivial_moveIcEE",
   "name" : "android::trait_trivial_move<char>",
   "size" : 1,
   "source_file" : "system/core/libutils/include/utils/TypeHelpers.h",
   "template_args" :
   [
    "_ZTIc"
   ]
  },
  {
   "alignment" : 1,
   "linker_set_key" : "_ZTIN7android18trait_trivial_moveIcEE",
   "name" : "android::trait_trivial_move<char>",
   "self_type" : "_ZTIN7android18trait_trivial_moveIcEE#ODR:out/soong/.intermediates/system/core/libutils/binder/libutils_binder/android_vendor_arm64_armv8-a_cortex-a53_static_afdo-libutils/obj/system/core/libutils/binder/RefBase.sdump",
   "size" : 1,
   "source_file" : "system/core/libutils/binder/include/utils/TypeHelpers.h",
   "template_args" :
   [
    "_ZTIc"
   ]
  },
  {
   "alignment" : 1,
   "linker_set_key" : "_ZTIN7android18trait_trivial_moveIdEE",
   "name" : "android::trait_trivial_move<double>",
   "size" : 1,
   "source_file" : "system/core/libutils/include/utils/TypeHelpers.h",
   "template_args" :
   [
    "_ZTId"
   ]
  },
  {
   "alignment" : 1,
   "linker_set_key" : "_ZTIN7android18trait_trivial_moveIdEE",
   "name" : "android::trait_trivial_move<double>",
   "self_type" : "_ZTIN7android18trait_trivial_moveIdEE#ODR:out/soong/.intermediates/system/core/libutils/binder/libutils_binder/android_vendor_arm64_armv8-a_cortex-a53_static_afdo-libutils/obj/system/core/libutils/binder/RefBase.sdump",
   "size" : 1,
   "source_file" : "system/core/libutils/binder/include/utils/TypeHelpers.h",
   "template_args" :
   [
    "_ZTId"
   ]
  },
  {
   "alignment" : 1,
   "linker_set_key" : "_ZTIN7android18trait_trivial_moveIfEE",
   "name" : "android::trait_trivial_move<float>",
   "size" : 1,
   "source_file" : "system/core/libutils/include/utils/TypeHelpers.h",
   "template_args" :
   [
    "_ZTIf"
   ]
  },
  {
   "alignment" : 1,
   "linker_set_key" : "_ZTIN7android18trait_trivial_moveIfEE",
   "name" : "android::trait_trivial_move<float>",
   "self_type" : "_ZTIN7android18trait_trivial_moveIfEE#ODR:out/soong/.intermediates/system/core/libutils/binder/libutils_binder/android_vendor_arm64_armv8-a_cortex-a53_static_afdo-libutils/obj/system/core/libutils/binder/RefBase.sdump",
   "size" : 1,
   "source_file" : "system/core/libutils/binder/include/utils/TypeHelpers.h",
   "template_args" :
   [
    "_ZTIf"
   ]
  },
  {
   "alignment" : 1,
   "linker_set_key" : "_ZTIN7android18trait_trivial_moveIhEE",
   "name" : "android::trait_trivial_move<unsigned char>",
   "size" : 1,
   "source_file" : "system/core/libutils/include/utils/TypeHelpers.h",
   "template_args" :
   [
    "_ZTIh"
   ]
  },
  {
   "alignment" : 1,
   "linker_set_key" : "_ZTIN7android18trait_trivial_moveIhEE",
   "name" : "android::trait_trivial_move<unsigned char>",
   "self_type" : "_ZTIN7android18trait_trivial_moveIhEE#ODR:out/soong/.intermediates/system/core/libutils/binder/libutils_binder/android_vendor_arm64_armv8-a_cortex-a53_static_afdo-libutils/obj/system/core/libutils/binder/RefBase.sdump",
   "size" : 1,
   "source_file" : "system/core/libutils/binder/include/utils/TypeHelpers.h",
   "template_args" :
   [
    "_ZTIh"
   ]
  },
  {
   "alignment" : 1,
   "linker_set_key" : "_ZTIN7android18trait_trivial_moveIiEE",
   "name" : "android::trait_trivial_move<int>",
   "size" : 1,
   "source_file" : "system/core/libutils/include/utils/TypeHelpers.h",
   "template_args" :
   [
    "_ZTIi"
   ]
  },
  {
   "alignment" : 1,
   "linker_set_key" : "_ZTIN7android18trait_trivial_moveIiEE",
   "name" : "android::trait_trivial_move<int>",
   "self_type" : "_ZTIN7android18trait_trivial_moveIiEE#ODR:out/soong/.intermediates/system/core/libutils/binder/libutils_binder/android_vendor_arm64_armv8-a_cortex-a53_static_afdo-libutils/obj/system/core/libutils/binder/RefBase.sdump",
   "size" : 1,
   "source_file" : "system/core/libutils/binder/include/utils/TypeHelpers.h",
   "template_args" :
   [
    "_ZTIi"
   ]
  },
  {
   "alignment" : 1,
   "linker_set_key" : "_ZTIN7android18trait_trivial_moveIjEE",
   "name" : "android::trait_trivial_move<unsigned int>",
   "size" : 1,
   "source_file" : "system/core/libutils/include/utils/TypeHelpers.h",
   "template_args" :
   [
    "_ZTIj"
   ]
  },
  {
   "alignment" : 1,
   "linker_set_key" : "_ZTIN7android18trait_trivial_moveIjEE",
   "name" : "android::trait_trivial_move<unsigned int>",
   "self_type" : "_ZTIN7android18trait_trivial_moveIjEE#ODR:out/soong/.intermediates/system/core/libutils/binder/libutils_binder/android_vendor_arm64_armv8-a_cortex-a53_static_afdo-libutils/obj/system/core/libutils/binder/RefBase.sdump",
   "size" : 1,
   "source_file" : "system/core/libutils/binder/include/utils/TypeHelpers.h",
   "template_args" :
   [
    "_ZTIj"
   ]
  },
  {
   "alignment" : 1,
   "linker_set_key" : "_ZTIN7android18trait_trivial_moveIlEE",
   "name" : "android::trait_trivial_move<long>",
   "size" : 1,
   "source_file" : "system/core/libutils/include/utils/TypeHelpers.h",
   "template_args" :
   [
    "_ZTIl"
   ]
  },
  {
   "alignment" : 1,
   "linker_set_key" : "_ZTIN7android18trait_trivial_moveIlEE",
   "name" : "android::trait_trivial_move<long>",
   "self_type" : "_ZTIN7android18trait_trivial_moveIlEE#ODR:out/soong/.intermediates/system/core/libutils/binder/libutils_binder/android_vendor_arm64_armv8-a_cortex-a53_static_afdo-libutils/obj/system/core/libutils/binder/RefBase.sdump",
   "size" : 1,
   "source_file" : "system/core/libutils/binder/include/utils/TypeHelpers.h",
   "template_args" :
   [
    "_ZTIl"
   ]
  },
  {
   "alignment" : 1,
   "linker_set_key" : "_ZTIN7android18trait_trivial_moveImEE",
   "name" : "android::trait_trivial_move<unsigned long>",
   "size" : 1,
   "source_file" : "system/core/libutils/include/utils/TypeHelpers.h",
   "template_args" :
   [
    "_ZTIm"
   ]
  },
  {
   "alignment" : 1,
   "linker_set_key" : "_ZTIN7android18trait_trivial_moveImEE",
   "name" : "android::trait_trivial_move<unsigned long>",
   "self_type" : "_ZTIN7android18trait_trivial_moveImEE#ODR:out/soong/.intermediates/system/core/libutils/binder/libutils_binder/android_vendor_arm64_armv8-a_cortex-a53_static_afdo-libutils/obj/system/core/libutils/binder/RefBase.sdump",
   "size" : 1,
   "source_file" : "system/core/libutils/binder/include/utils/TypeHelpers.h",
   "template_args" :
   [
    "_ZTIm"
   ]
  },
  {
   "alignment" : 1,
   "linker_set_key" : "_ZTIN7android18trait_trivial_moveIsEE",
   "name" : "android::trait_trivial_move<short>",
   "size" : 1,
   "source_file" : "system/core/libutils/include/utils/TypeHelpers.h",
   "template_args" :
   [
    "_ZTIs"
   ]
  },
  {
   "alignment" : 1,
   "linker_set_key" : "_ZTIN7android18trait_trivial_moveIsEE",
   "name" : "android::trait_trivial_move<short>",
   "self_type" : "_ZTIN7android18trait_trivial_moveIsEE#ODR:out/soong/.intermediates/system/core/libutils/binder/libutils_binder/android_vendor_arm64_armv8-a_cortex-a53_static_afdo-libutils/obj/system/core/libutils/binder/RefBase.sdump",
   "size" : 1,
   "source_file" : "system/core/libutils/binder/include/utils/TypeHelpers.h",
   "template_args" :
   [
    "_ZTIs"
   ]
  },
  {
   "alignment" : 1,
   "linker_set_key" : "_ZTIN7android18trait_trivial_moveItEE",
   "name" : "android::trait_trivial_move<unsigned short>",
   "size" : 1,
   "source_file" : "system/core/libutils/include/utils/TypeHelpers.h",
   "template_args" :
   [
    "_ZTIt"
   ]
  },
  {
   "alignment" : 1,
   "linker_set_key" : "_ZTIN7android18trait_trivial_moveItEE",
   "name" : "android::trait_trivial_move<unsigned short>",
   "self_type" : "_ZTIN7android18trait_trivial_moveItEE#ODR:out/soong/.intermediates/system/core/libutils/binder/libutils_binder/android_vendor_arm64_armv8-a_cortex-a53_static_afdo-libutils/obj/system/core/libutils/binder/RefBase.sdump",
   "size" : 1,
   "source_file" : "system/core/libutils/binder/include/utils/TypeHelpers.h",
   "template_args" :
   [
    "_ZTIt"
   ]
  },
  {
   "alignment" : 1,
   "linker_set_key" : "_ZTIN7android18trait_trivial_moveIvEE",
   "name" : "android::trait_trivial_move<void>",
   "size" : 1,
   "source_file" : "system/core/libutils/include/utils/TypeHelpers.h",
   "template_args" :
   [
    "_ZTIv"
   ]
  },
  {
   "alignment" : 1,
   "linker_set_key" : "_ZTIN7android18trait_trivial_moveIvEE",
   "name" : "android::trait_trivial_move<void>",
   "self_type" : "_ZTIN7android18trait_trivial_moveIvEE#ODR:out/soong/.intermediates/system/core/libutils/binder/libutils_binder/android_vendor_arm64_armv8-a_cortex-a53_static_afdo-libutils/obj/system/core/libutils/binder/RefBase.sdump",
   "size" : 1,
   "source_file" : "system/core/libutils/binder/include/utils/TypeHelpers.h",
   "template_args" :
   [
    "_ZTIv"
   ]
  },
  {
   "alignment" : 1,
   "linker_set_key" : "_ZTIN7android18trait_trivial_moveIxEE",
   "name" : "android::trait_trivial_move<long long>",
   "size" : 1,
   "source_file" : "system/core/libutils/include/utils/TypeHelpers.h",
   "template_args" :
   [
    "_ZTIx"
   ]
  },
  {
   "alignment" : 1,
   "linker_set_key" : "_ZTIN7android18trait_trivial_moveIxEE",
   "name" : "android::trait_trivial_move<long long>",
   "self_type" : "_ZTIN7android18trait_trivial_moveIxEE#ODR:out/soong/.intermediates/system/core/libutils/binder/libutils_binder/android_vendor_arm64_armv8-a_cortex-a53_static_afdo-libutils/obj/system/core/libutils/binder/RefBase.sdump",
   "size" : 1,
   "source_file" : "system/core/libutils/binder/include/utils/TypeHelpers.h",
   "template_args" :
   [
    "_ZTIx"
   ]
  },
  {
   "alignment" : 1,
   "linker_set_key" : "_ZTIN7android18trait_trivial_moveIyEE",
   "name" : "android::trait_trivial_move<unsigned long long>",
   "size" : 1,
   "source_file" : "system/core/libutils/include/utils/TypeHelpers.h",
   "template_args" :
   [
    "_ZTIy"
   ]
  },
  {
   "alignment" : 1,
   "linker_set_key" : "_ZTIN7android18trait_trivial_moveIyEE",
   "name" : "android::trait_trivial_move<unsigned long long>",
   "self_type" : "_ZTIN7android18trait_trivial_moveIyEE#ODR:out/soong/.intermediates/system/core/libutils/binder/libutils_binder/android_vendor_arm64_armv8-a_cortex-a53_static_afdo-libutils/obj/system/core/libutils/binder/RefBase.sdump",
   "size" : 1,
   "source_file" : "system/core/libutils/binder/include/utils/TypeHelpers.h",
   "template_args" :
   [
    "_ZTIy"
   ]
  },
  {
   "alignment" : 8,
   "base_specifiers" :
   [
    {
     "referenced_type" : "_ZTIN7android12LightRefBaseINS_19VirtualLightRefBaseEEE"
    }
   ],
   "linker_set_key" : "_ZTIN7android19VirtualLightRefBaseE",
   "name" : "android::VirtualLightRefBase",
   "record_kind" : "class",
   "size" : 16,
   "source_file" : "system/core/libutils/include/utils/LightRefBase.h",
   "vtable_components" :
   [
    {
     "kind" : "offset_to_top"
    },
    {
     "kind" : "rtti",
     "mangled_component_name" : "_ZTIN7android19VirtualLightRefBaseE"
    },
    {
     "kind" : "complete_dtor_pointer",
     "mangled_component_name" : "_ZN7android19VirtualLightRefBaseD1Ev"
    },
    {
     "kind" : "deleting_dtor_pointer",
     "mangled_component_name" : "_ZN7android19VirtualLightRefBaseD0Ev"
    }
   ]
  },
  {
   "alignment" : 8,
   "base_specifiers" :
   [
    {
     "referenced_type" : "_ZTIN7android12LightRefBaseINS_19VirtualLightRefBaseEEE#ODR:out/soong/.intermediates/system/core/libutils/binder/libutils_binder/android_vendor_arm64_armv8-a_cortex-a53_static_afdo-libutils/obj/system/core/libutils/binder/RefBase.sdump"
    }
   ],
   "linker_set_key" : "_ZTIN7android19VirtualLightRefBaseE",
   "name" : "android::VirtualLightRefBase",
   "record_kind" : "class",
   "self_type" : "_ZTIN7android19VirtualLightRefBaseE#ODR:out/soong/.intermediates/system/core/libutils/binder/libutils_binder/android_vendor_arm64_armv8-a_cortex-a53_static_afdo-libutils/obj/system/core/libutils/binder/RefBase.sdump",
   "size" : 16,
   "source_file" : "system/core/libutils/binder/include/utils/LightRefBase.h",
   "vtable_components" :
   [
    {
     "kind" : "offset_to_top"
    },
    {
     "kind" : "rtti",
     "mangled_component_name" : "_ZTIN7android19VirtualLightRefBaseE"
    },
    {
     "kind" : "complete_dtor_pointer",
     "mangled_component_name" : "_ZN7android19VirtualLightRefBaseD1Ev"
    },
    {
     "kind" : "deleting_dtor_pointer",
     "mangled_component_name" : "_ZN7android19VirtualLightRefBaseD0Ev"
    }
   ]
  },
  {
   "alignment" : 8,
   "base_specifiers" :
   [
    {
     "referenced_type" : "_ZTIN7android14LooperCallbackE"
    }
   ],
   "fields" :
   [
    {
     "access" : "private",
     "field_name" : "mCallback",
     "field_offset" : 64,
     "referenced_type" : "_ZTIPFiiiPvE"
    }
   ],
   "linker_set_key" : "_ZTIN7android20SimpleLooperCallbackE",
   "name" : "android::SimpleLooperCallback",
   "record_kind" : "class",
   "size" : 32,
   "source_file" : "system/core/libutils/include/utils/Looper.h",
   "vtable_components" :
   [
    {
     "component_value" : 16,
     "kind" : "vbase_offset"
    },
    {
     "kind" : "offset_to_top"
    },
    {
     "kind" : "rtti",
     "mangled_component_name" : "_ZTIN7android20SimpleLooperCallbackE"
    },
    {
     "kind" : "complete_dtor_pointer",
     "mangled_component_name" : "_ZN7android20SimpleLooperCallbackD1Ev"
    },
    {
     "kind" : "deleting_dtor_pointer",
     "mangled_component_name" : "_ZN7android20SimpleLooperCallbackD0Ev"
    },
    {
     "mangled_component_name" : "_ZN7android20SimpleLooperCallback11handleEventEiiPv"
    },
    {
     "kind" : "vcall_offset"
    },
    {
     "kind" : "vcall_offset"
    },
    {
     "kind" : "vcall_offset"
    },
    {
     "kind" : "vcall_offset"
    },
    {
     "component_value" : -16,
     "kind" : "vcall_offset"
    },
    {
     "component_value" : -16,
     "kind" : "offset_to_top"
    },
    {
     "kind" : "rtti",
     "mangled_component_name" : "_ZTIN7android20SimpleLooperCallbackE"
    },
    {
     "kind" : "complete_dtor_pointer",
     "mangled_component_name" : "_ZTv0_n24_N7android20SimpleLooperCallbackD1Ev"
    },
    {
     "kind" : "deleting_dtor_pointer",
     "mangled_component_name" : "_ZTv0_n24_N7android20SimpleLooperCallbackD0Ev"
    },
    {
     "mangled_component_name" : "_ZN7android7RefBase10onFirstRefEv"
    },
    {
     "mangled_component_name" : "_ZN7android7RefBase15onLastStrongRefEPKv"
    },
    {
     "mangled_component_name" : "_ZN7android7RefBase20onIncStrongAttemptedEjPKv"
    },
    {
     "mangled_component_name" : "_ZN7android7RefBase13onLastWeakRefEPKv"
    }
   ]
  },
  {
   "alignment" : 8,
   "fields" :
   [
    {
     "access" : "private",
     "field_name" : "m_ptr",
     "referenced_type" : "_ZTIPN7android12NativeHandleE"
    }
   ],
   "linker_set_key" : "_ZTIN7android2spINS_12NativeHandleEEE",
   "name" : "android::sp<android::NativeHandle>",
   "record_kind" : "class",
   "size" : 8,
   "source_file" : "system/core/libutils/include/utils/StrongPointer.h",
   "template_args" :
   [
    "_ZTIN7android12NativeHandleE"
   ]
  },
  {
   "alignment" : 8,
   "fields" :
   [
    {
     "access" : "private",
     "field_name" : "m_ptr",
     "referenced_type" : "_ZTIPN7android14LooperCallbackE"
    }
   ],
   "linker_set_key" : "_ZTIN7android2spINS_14LooperCallbackEEE",
   "name" : "android::sp<android::LooperCallback>",
   "record_kind" : "class",
   "size" : 8,
   "source_file" : "system/core/libutils/include/utils/StrongPointer.h",
   "template_args" :
   [
    "_ZTIN7android14LooperCallbackE"
   ]
  },
  {
   "alignment" : 8,
   "fields" :
   [
    {
     "access" : "private",
     "field_name" : "m_ptr",
     "referenced_type" : "_ZTIPN7android14MessageHandlerE"
    }
   ],
   "linker_set_key" : "_ZTIN7android2spINS_14MessageHandlerEEE",
   "name" : "android::sp<android::MessageHandler>",
   "record_kind" : "class",
   "size" : 8,
   "source_file" : "system/core/libutils/include/utils/StrongPointer.h",
   "template_args" :
   [
    "_ZTIN7android14MessageHandlerE"
   ]
  },
  {
   "alignment" : 8,
   "fields" :
   [
    {
     "access" : "private",
     "field_name" : "m_ptr",
     "referenced_type" : "_ZTIPN7android20SimpleLooperCallbackE"
    }
   ],
   "linker_set_key" : "_ZTIN7android2spINS_20SimpleLooperCallbackEEE",
   "name" : "android::sp<android::SimpleLooperCallback>",
   "record_kind" : "class",
   "size" : 8,
   "source_file" : "system/core/libutils/include/utils/StrongPointer.h",
   "template_args" :
   [
    "_ZTIN7android20SimpleLooperCallbackE"
   ]
  },
  {
   "alignment" : 8,
   "fields" :
   [
    {
     "access" : "private",
     "field_name" : "m_ptr",
     "referenced_type" : "_ZTIPN7android6LooperE"
    }
   ],
   "linker_set_key" : "_ZTIN7android2spINS_6LooperEEE",
   "name" : "android::sp<android::Looper>",
   "record_kind" : "class",
   "size" : 8,
   "source_file" : "system/core/libutils/include/utils/StrongPointer.h",
   "template_args" :
   [
    "_ZTIN7android6LooperE"
   ]
  },
  {
   "alignment" : 8,
   "fields" :
   [
    {
     "access" : "private",
     "field_name" : "m_ptr",
     "referenced_type" : "_ZTIPN7android6ThreadE"
    }
   ],
   "linker_set_key" : "_ZTIN7android2spINS_6ThreadEEE",
   "name" : "android::sp<android::Thread>",
   "record_kind" : "class",
   "size" : 8,
   "source_file" : "system/core/libutils/include/utils/StrongPointer.h",
   "template_args" :
   [
    "_ZTIN7android6ThreadE"
   ]
  },
  {
   "alignment" : 8,
   "fields" :
   [
    {
     "access" : "private",
     "field_name" : "m_ptr",
     "referenced_type" : "_ZTIPN7android14MessageHandlerE"
    },
    {
     "access" : "private",
     "field_name" : "m_refs",
     "field_offset" : 64,
     "referenced_type" : "_ZTIPN7android7RefBase12weakref_typeE"
    }
   ],
   "linker_set_key" : "_ZTIN7android2wpINS_14MessageHandlerEEE",
   "name" : "android::wp<android::MessageHandler>",
   "record_kind" : "class",
   "size" : 16,
   "source_file" : "system/core/libutils/include/utils/RefBase.h",
   "template_args" :
   [
    "_ZTIN7android14MessageHandlerE"
   ]
  },
  {
   "alignment" : 8,
   "fields" :
   [
    {
     "access" : "private",
     "field_name" : "m_ptr",
     "referenced_type" : "_ZTIPN7android6ThreadE"
    },
    {
     "access" : "private",
     "field_name" : "m_refs",
     "field_offset" : 64,
     "referenced_type" : "_ZTIPN7android7RefBase12weakref_typeE"
    }
   ],
   "linker_set_key" : "_ZTIN7android2wpINS_6ThreadEEE",
   "name" : "android::wp<android::Thread>",
   "record_kind" : "class",
   "size" : 16,
   "source_file" : "system/core/libutils/include/utils/RefBase.h",
   "template_args" :
   [
    "_ZTIN7android6ThreadE"
   ]
  },
  {
   "alignment" : 4,
   "fields" :
   [
    {
     "access" : "private",
     "field_name" : "fd_",
     "referenced_type" : "_ZTIi"
    }
   ],
   "linker_set_key" : "_ZTIN7android4base11borrowed_fdE",
   "name" : "android::base::borrowed_fd",
   "size" : 4,
   "source_file" : "system/libbase/include/android-base/unique_fd.h"
  },
  {
   "alignment" : 1,
   "linker_set_key" : "_ZTIN7android4base13DefaultCloserE",
   "name" : "android::base::DefaultCloser",
   "size" : 1,
   "source_file" : "system/libbase/include/android-base/unique_fd.h"
  },
  {
   "alignment" : 4,
   "fields" :
   [
    {
     "access" : "private",
     "field_name" : "fd_",
     "referenced_type" : "_ZTIi"
    }
   ],
   "linker_set_key" : "_ZTIN7android4base14unique_fd_implINS0_13DefaultCloserEEE",
   "name" : "android::base::unique_fd_impl<android::base::DefaultCloser>",
   "record_kind" : "class",
   "size" : 4,
   "source_file" : "system/libbase/include/android-base/unique_fd.h",
   "template_args" :
   [
    "_ZTIN7android4base13DefaultCloserE"
   ]
  },
  {
   "alignment" : 8,
   "fields" :
   [
    {
     "access" : "private",
     "field_name" : "mLock",
     "referenced_type" : "_ZTIRN7android5MutexE"
    }
   ],
   "linker_set_key" : "_ZTIN7android5Mutex8AutolockE",
   "name" : "android::Mutex::Autolock",
   "record_kind" : "class",
   "size" : 8,
   "source_file" : "system/core/libutils/include/utils/Mutex.h"
  },
  {
   "alignment" : 4,
   "fields" :
   [
    {
     "access" : "private",
     "field_name" : "mMutex",
     "referenced_type" : "_ZTI15pthread_mutex_t"
    }
   ],
   "linker_set_key" : "_ZTIN7android5MutexE",
   "name" : "android::Mutex",
   "record_kind" : "class",
   "size" : 40,
   "source_file" : "system/core/libutils/include/utils/Mutex.h"
  },
  {
   "access" : "private",
   "alignment" : 8,
   "fields" :
   [
    {
     "field_name" : "uptime",
     "referenced_type" : "_ZTIl"
    },
    {
     "field_name" : "handler",
     "field_offset" : 64,
     "referenced_type" : "_ZTIN7android2spINS_14MessageHandlerEEE"
    },
    {
     "field_name" : "message",
     "field_offset" : 128,
     "referenced_type" : "_ZTIN7android7MessageE"
    }
   ],
   "linker_set_key" : "_ZTIN7android6Looper15MessageEnvelopeE",
   "name" : "android::Looper::MessageEnvelope",
   "size" : 24,
   "source_file" : "system/core/libutils/include/utils/Looper.h"
  },
  {
   "access" : "private",
   "alignment" : 8,
   "fields" :
   [
    {
     "field_name" : "fd",
     "referenced_type" : "_ZTIi"
    },
    {
     "field_name" : "ident",
     "field_offset" : 32,
     "referenced_type" : "_ZTIi"
    },
    {
     "field_name" : "events",
     "field_offset" : 64,
     "referenced_type" : "_ZTIi"
    },
    {
     "field_name" : "callback",
     "field_offset" : 128,
     "referenced_type" : "_ZTIN7android2spINS_14LooperCallbackEEE"
    },
    {
     "field_name" : "data",
     "field_offset" : 192,
     "referenced_type" : "_ZTIPv"
    }
   ],
   "linker_set_key" : "_ZTIN7android6Looper7RequestE",
   "name" : "android::Looper::Request",
   "size" : 32,
   "source_file" : "system/core/libutils/include/utils/Looper.h"
  },
  {
   "access" : "private",
   "alignment" : 8,
   "fields" :
   [
    {
     "field_name" : "seq",
     "referenced_type" : "_ZTIm"
    },
    {
     "field_name" : "events",
     "field_offset" : 64,
     "referenced_type" : "_ZTIi"
    },
    {
     "field_name" : "request",
     "field_offset" : 128,
     "referenced_type" : "_ZTIN7android6Looper7RequestE"
    }
   ],
   "linker_set_key" : "_ZTIN7android6Looper8ResponseE",
   "name" : "android::Looper::Response",
   "size" : 48,
   "source_file" : "system/core/libutils/include/utils/Looper.h"
  },
  {
   "alignment" : 8,
   "base_specifiers" :
   [
    {
     "referenced_type" : "_ZTIN7android7RefBaseE"
    }
   ],
   "fields" :
   [
    {
     "access" : "private",
     "field_name" : "mAllowNonCallbacks",
     "field_offset" : 128,
     "referenced_type" : "_ZTIKb"
    },
    {
     "access" : "private",
     "field_name" : "mWakeEventFd",
     "field_offset" : 160,
     "referenced_type" : "_ZTIN7android4base14unique_fd_implINS0_13DefaultCloserEEE"
    },
    {
     "access" : "private",
     "field_name" : "mLock",
     "field_offset" : 192,
     "referenced_type" : "_ZTIN7android5MutexE"
    },
    {
     "access" : "private",
     "field_name" : "mMessageEnvelopes",
     "field_offset" : 512,
     "referenced_type" : "_ZTIN7android6VectorINS_6Looper15MessageEnvelopeEEE"
    },
    {
     "access" : "private",
     "field_name" : "mSendingMessage",
     "field_offset" : 832,
     "referenced_type" : "_ZTIb"
    },
    {
     "access" : "private",
     "field_name" : "mPolling",
     "field_offset" : 840,
     "referenced_type" : "_ZTIVb"
    },
    {
     "access" : "private",
     "field_name" : "mEpollFd",
     "field_offset" : 864,
     "referenced_type" : "_ZTIN7android4base14unique_fd_implINS0_13DefaultCloserEEE"
    },
    {
     "access" : "private",
     "field_name" : "mEpollRebuildRequired",
     "field_offset" : 896,
     "referenced_type" : "_ZTIb"
    },
    {
     "access" : "private",
     "field_name" : "mRequests",
     "field_offset" : 960,
     "referenced_type" : "_ZTINSt3__113unordered_mapImN7android6Looper7RequestENS_4hashImEENS_8equal_toImEENS_9allocatorINS_4pairIKmS3_EEEEEE"
    },
    {
     "access" : "private",
     "field_name" : "mSequenceNumberByFd",
     "field_offset" : 1280,
     "referenced_type" : "_ZTINSt3__113unordered_mapIimNS_4hashIiEENS_8equal_toIiEENS_9allocatorINS_4pairIKimEEEEEE"
    },
    {
     "access" : "private",
     "field_name" : "mNextRequestSeq",
     "field_offset" : 1600,
     "referenced_type" : "_ZTIm"
    },
    {
     "access" : "private",
     "field_name" : "mResponses",
     "field_offset" : 1664,
     "referenced_type" : "_ZTIN7android6VectorINS_6Looper8ResponseEEE"
    },
    {
     "access" : "private",
     "field_name" : "mResponseIndex",
     "field_offset" : 1984,
     "referenced_type" : "_ZTIm"
    },
    {
     "access" : "private",
     "field_name" : "mNextMessageUptime",
     "field_offset" : 2048,
     "referenced_type" : "_ZTIl"
    }
   ],
   "linker_set_key" : "_ZTIN7android6LooperE",
   "name" : "android::Looper",
   "record_kind" : "class",
   "size" : 264,
   "source_file" : "system/core/libutils/include/utils/Looper.h",
   "vtable_components" :
   [
    {
     "kind" : "offset_to_top"
    },
    {
     "kind" : "rtti",
     "mangled_component_name" : "_ZTIN7android6LooperE"
    },
    {
     "kind" : "complete_dtor_pointer",
     "mangled_component_name" : "_ZN7android6LooperD1Ev"
    },
    {
     "kind" : "deleting_dtor_pointer",
     "mangled_component_name" : "_ZN7android6LooperD0Ev"
    },
    {
     "mangled_component_name" : "_ZN7android7RefBase10onFirstRefEv"
    },
    {
     "mangled_component_name" : "_ZN7android7RefBase15onLastStrongRefEPKv"
    },
    {
     "mangled_component_name" : "_ZN7android7RefBase20onIncStrongAttemptedEjPKv"
    },
    {
     "mangled_component_name" : "_ZN7android7RefBase13onLastWeakRefEPKv"
    }
   ]
  },
  {
   "alignment" : 8,
   "fields" :
   [
    {
     "access" : "private",
     "field_name" : "mLock",
     "referenced_type" : "_ZTIRN7android6RWLockE"
    }
   ],
   "linker_set_key" : "_ZTIN7android6RWLock9AutoRLockE",
   "name" : "android::RWLock::AutoRLock",
   "record_kind" : "class",
   "size" : 8,
   "source_file" : "system/core/libutils/include/utils/RWLock.h"
  },
  {
   "alignment" : 8,
   "fields" :
   [
    {
     "access" : "private",
     "field_name" : "mLock",
     "referenced_type" : "_ZTIRN7android6RWLockE"
    }
   ],
   "linker_set_key" : "_ZTIN7android6RWLock9AutoWLockE",
   "name" : "android::RWLock::AutoWLock",
   "record_kind" : "class",
   "size" : 8,
   "source_file" : "system/core/libutils/include/utils/RWLock.h"
  },
  {
   "alignment" : 4,
   "fields" :
   [
    {
     "access" : "private",
     "field_name" : "mRWLock",
     "referenced_type" : "_ZTI16pthread_rwlock_t"
    }
   ],
   "linker_set_key" : "_ZTIN7android6RWLockE",
   "name" : "android::RWLock",
   "record_kind" : "class",
   "size" : 56,
   "source_file" : "system/core/libutils/include/utils/RWLock.h"
  },
  {
   "alignment" : 8,
   "base_specifiers" :
   [
    {
     "is_virtual" : true,
     "referenced_type" : "_ZTIN7android7RefBaseE"
    }
   ],
   "fields" :
   [
    {
     "access" : "private",
     "field_name" : "mCanCallJava",
     "field_offset" : 64,
     "referenced_type" : "_ZTIKb"
    },
    {
     "access" : "private",
     "field_name" : "mThread",
     "field_offset" : 128,
     "referenced_type" : "_ZTIPv"
    },
    {
     "access" : "private",
     "field_name" : "mLock",
     "field_offset" : 192,
     "referenced_type" : "_ZTIN7android5MutexE"
    },
    {
     "access" : "private",
     "field_name" : "mThreadExitedCondition",
     "field_offset" : 512,
     "referenced_type" : "_ZTIN7android9ConditionE"
    },
    {
     "access" : "private",
     "field_name" : "mStatus",
     "field_offset" : 896,
     "referenced_type" : "_ZTIi"
    },
    {
     "access" : "private",
     "field_name" : "mExitPending",
     "field_offset" : 928,
     "referenced_type" : "_ZTIVb"
    },
    {
     "access" : "private",
     "field_name" : "mRunning",
     "field_offset" : 936,
     "referenced_type" : "_ZTIVb"
    },
    {
     "access" : "private",
     "field_name" : "mHoldSelf",
     "field_offset" : 960,
     "referenced_type" : "_ZTIN7android2spINS_6ThreadEEE"
    },
    {
     "access" : "private",
     "field_name" : "mTid",
     "field_offset" : 1024,
     "referenced_type" : "_ZTIi"
    }
   ],
   "linker_set_key" : "_ZTIN7android6ThreadE",
   "name" : "android::Thread",
   "record_kind" : "class",
   "size" : 152,
   "source_file" : "system/core/libutils/include/utils/Thread.h",
   "vtable_components" :
   [
    {
     "component_value" : 136,
     "kind" : "vbase_offset"
    },
    {
     "kind" : "offset_to_top"
    },
    {
     "kind" : "rtti",
     "mangled_component_name" : "_ZTIN7android6ThreadE"
    },
    {
     "kind" : "complete_dtor_pointer",
     "mangled_component_name" : "_ZN7android6ThreadD1Ev"
    },
    {
     "kind" : "deleting_dtor_pointer",
     "mangled_component_name" : "_ZN7android6ThreadD0Ev"
    },
    {
     "mangled_component_name" : "_ZN7android6Thread3runEPKcim"
    },
    {
     "mangled_component_name" : "_ZN7android6Thread11requestExitEv"
    },
    {
     "mangled_component_name" : "_ZN7android6Thread10readyToRunEv"
    },
    {
     "is_pure" : true,
     "mangled_component_name" : "_ZN7android6Thread10threadLoopEv"
    },
    {
     "kind" : "vcall_offset"
    },
    {
     "kind" : "vcall_offset"
    },
    {
     "kind" : "vcall_offset"
    },
    {
     "kind" : "vcall_offset"
    },
    {
     "component_value" : -136,
     "kind" : "vcall_offset"
    },
    {
     "component_value" : -136,
     "kind" : "offset_to_top"
    },
    {
     "kind" : "rtti",
     "mangled_component_name" : "_ZTIN7android6ThreadE"
    },
    {
     "kind" : "complete_dtor_pointer",
     "mangled_component_name" : "_ZTv0_n24_N7android6ThreadD1Ev"
    },
    {
     "kind" : "deleting_dtor_pointer",
     "mangled_component_name" : "_ZTv0_n24_N7android6ThreadD0Ev"
    },
    {
     "mangled_component_name" : "_ZN7android7RefBase10onFirstRefEv"
    },
    {
     "mangled_component_name" : "_ZN7android7RefBase15onLastStrongRefEPKv"
    },
    {
     "mangled_component_name" : "_ZN7android7RefBase20onIncStrongAttemptedEjPKv"
    },
    {
     "mangled_component_name" : "_ZN7android7RefBase13onLastWeakRefEPKv"
    }
   ]
  },
  {
   "alignment" : 8,
   "base_specifiers" :
   [
    {
     "access" : "private",
     "referenced_type" : "_ZTIN7android10VectorImplE"
    }
   ],
   "linker_set_key" : "_ZTIN7android6VectorINS_28sysprop_change_callback_infoEEE",
   "name" : "android::Vector<android::sysprop_change_callback_info>",
   "record_kind" : "class",
   "size" : 40,
   "source_file" : "system/core/libutils/include/utils/Vector.h",
   "template_args" :
   [
    "_ZTIN7android28sysprop_change_callback_infoE"
   ],
   "vtable_components" :
   [
    {
     "kind" : "offset_to_top"
    },
    {
     "kind" : "rtti",
     "mangled_component_name" : "_ZTIN7android6VectorINS_28sysprop_change_callback_infoEEE"
    },
    {
     "kind" : "complete_dtor_pointer",
     "mangled_component_name" : "_ZN7android6VectorINS_28sysprop_change_callback_infoEED1Ev"
    },
    {
     "kind" : "deleting_dtor_pointer",
     "mangled_component_name" : "_ZN7android6VectorINS_28sysprop_change_callback_infoEED0Ev"
    },
    {
     "mangled_component_name" : "_ZNK7android6VectorINS_28sysprop_change_callback_infoEE12do_constructEPvm"
    },
    {
     "mangled_component_name" : "_ZNK7android6VectorINS_28sysprop_change_callback_infoEE10do_destroyEPvm"
    },
    {
     "mangled_component_name" : "_ZNK7android6VectorINS_28sysprop_change_callback_infoEE7do_copyEPvPKvm"
    },
    {
     "mangled_component_name" : "_ZNK7android6VectorINS_28sysprop_change_callback_infoEE8do_splatEPvPKvm"
    },
    {
     "mangled_component_name" : "_ZNK7android6VectorINS_28sysprop_change_callback_infoEE15do_move_forwardEPvPKvm"
    },
    {
     "mangled_component_name" : "_ZNK7android6VectorINS_28sysprop_change_callback_infoEE16do_move_backwardEPvPKvm"
    }
   ]
  },
  {
   "alignment" : 8,
   "base_specifiers" :
   [
    {
     "access" : "private",
     "referenced_type" : "_ZTIN7android10VectorImplE"
    }
   ],
   "linker_set_key" : "_ZTIN7android6VectorINS_6Looper15MessageEnvelopeEEE",
   "name" : "android::Vector<android::Looper::MessageEnvelope>",
   "record_kind" : "class",
   "size" : 40,
   "source_file" : "system/core/libutils/include/utils/Vector.h",
   "template_args" :
   [
    "_ZTIN7android6Looper15MessageEnvelopeE"
   ],
   "vtable_components" :
   [
    {
     "kind" : "offset_to_top"
    },
    {
     "kind" : "rtti",
     "mangled_component_name" : "_ZTIN7android6VectorINS_6Looper15MessageEnvelopeEEE"
    },
    {
     "kind" : "complete_dtor_pointer",
     "mangled_component_name" : "_ZN7android6VectorINS_6Looper15MessageEnvelopeEED1Ev"
    },
    {
     "kind" : "deleting_dtor_pointer",
     "mangled_component_name" : "_ZN7android6VectorINS_6Looper15MessageEnvelopeEED0Ev"
    },
    {
     "mangled_component_name" : "_ZNK7android6VectorINS_6Looper15MessageEnvelopeEE12do_constructEPvm"
    },
    {
     "mangled_component_name" : "_ZNK7android6VectorINS_6Looper15MessageEnvelopeEE10do_destroyEPvm"
    },
    {
     "mangled_component_name" : "_ZNK7android6VectorINS_6Looper15MessageEnvelopeEE7do_copyEPvPKvm"
    },
    {
     "mangled_component_name" : "_ZNK7android6VectorINS_6Looper15MessageEnvelopeEE8do_splatEPvPKvm"
    },
    {
     "mangled_component_name" : "_ZNK7android6VectorINS_6Looper15MessageEnvelopeEE15do_move_forwardEPvPKvm"
    },
    {
     "mangled_component_name" : "_ZNK7android6VectorINS_6Looper15MessageEnvelopeEE16do_move_backwardEPvPKvm"
    }
   ]
  },
  {
   "alignment" : 8,
   "base_specifiers" :
   [
    {
     "access" : "private",
     "referenced_type" : "_ZTIN7android10VectorImplE"
    }
   ],
   "linker_set_key" : "_ZTIN7android6VectorINS_6Looper8ResponseEEE",
   "name" : "android::Vector<android::Looper::Response>",
   "record_kind" : "class",
   "size" : 40,
   "source_file" : "system/core/libutils/include/utils/Vector.h",
   "template_args" :
   [
    "_ZTIN7android6Looper8ResponseE"
   ],
   "vtable_components" :
   [
    {
     "kind" : "offset_to_top"
    },
    {
     "kind" : "rtti",
     "mangled_component_name" : "_ZTIN7android6VectorINS_6Looper8ResponseEEE"
    },
    {
     "kind" : "complete_dtor_pointer",
     "mangled_component_name" : "_ZN7android6VectorINS_6Looper8ResponseEED1Ev"
    },
    {
     "kind" : "deleting_dtor_pointer",
     "mangled_component_name" : "_ZN7android6VectorINS_6Looper8ResponseEED0Ev"
    },
    {
     "mangled_component_name" : "_ZNK7android6VectorINS_6Looper8ResponseEE12do_constructEPvm"
    },
    {
     "mangled_component_name" : "_ZNK7android6VectorINS_6Looper8ResponseEE10do_destroyEPvm"
    },
    {
     "mangled_component_name" : "_ZNK7android6VectorINS_6Looper8ResponseEE7do_copyEPvPKvm"
    },
    {
     "mangled_component_name" : "_ZNK7android6VectorINS_6Looper8ResponseEE8do_splatEPvPKvm"
    },
    {
     "mangled_component_name" : "_ZNK7android6VectorINS_6Looper8ResponseEE15do_move_forwardEPvPKvm"
    },
    {
     "mangled_component_name" : "_ZNK7android6VectorINS_6Looper8ResponseEE16do_move_backwardEPvPKvm"
    }
   ]
  },
  {
   "alignment" : 8,
   "base_specifiers" :
   [
    {
     "access" : "private",
     "referenced_type" : "_ZTIN7android10VectorImplE#ODR:out/soong/.intermediates/system/core/libutils/binder/libutils_binder/android_vendor_arm64_armv8-a_cortex-a53_static_afdo-libutils/obj/system/core/libutils/binder/RefBase.sdump"
    }
   ],
   "linker_set_key" : "_ZTIN7android6VectorINS_7String8EEE",
   "name" : "android::Vector<android::String8>",
   "record_kind" : "class",
   "size" : 40,
   "source_file" : "system/core/libutils/binder/include/utils/Vector.h",
   "template_args" :
   [
    "_ZTIN7android7String8E#ODR:out/soong/.intermediates/system/core/libutils/binder/libutils_binder/android_vendor_arm64_armv8-a_cortex-a53_static_afdo-libutils/obj/system/core/libutils/binder/RefBase.sdump"
   ],
   "vtable_components" :
   [
    {
     "kind" : "offset_to_top"
    },
    {
     "kind" : "rtti",
     "mangled_component_name" : "_ZTIN7android6VectorINS_7String8EEE"
    },
    {
     "kind" : "complete_dtor_pointer",
     "mangled_component_name" : "_ZN7android6VectorINS_7String8EED1Ev"
    },
    {
     "kind" : "deleting_dtor_pointer",
     "mangled_component_name" : "_ZN7android6VectorINS_7String8EED0Ev"
    },
    {
     "mangled_component_name" : "_ZNK7android6VectorINS_7String8EE12do_constructEPvm"
    },
    {
     "mangled_component_name" : "_ZNK7android6VectorINS_7String8EE10do_destroyEPvm"
    },
    {
     "mangled_component_name" : "_ZNK7android6VectorINS_7String8EE7do_copyEPvPKvm"
    },
    {
     "mangled_component_name" : "_ZNK7android6VectorINS_7String8EE8do_splatEPvPKvm"
    },
    {
     "mangled_component_name" : "_ZNK7android6VectorINS_7String8EE15do_move_forwardEPvPKvm"
    },
    {
     "mangled_component_name" : "_ZNK7android6VectorINS_7String8EE16do_move_backwardEPvPKvm"
    }
   ]
  },
  {
   "alignment" : 1,
   "linker_set_key" : "_ZTIN7android6traitsINS_28sysprop_change_callback_infoEEE",
   "name" : "android::traits<android::sysprop_change_callback_info>",
   "size" : 1,
   "source_file" : "system/core/libutils/include/utils/TypeHelpers.h",
   "template_args" :
   [
    "_ZTIN7android28sysprop_change_callback_infoE"
   ]
  },
  {
   "alignment" : 1,
   "linker_set_key" : "_ZTIN7android6traitsINS_6Looper15MessageEnvelopeEEE",
   "name" : "android::traits<android::Looper::MessageEnvelope>",
   "size" : 1,
   "source_file" : "system/core/libutils/include/utils/TypeHelpers.h",
   "template_args" :
   [
    "_ZTIN7android6Looper15MessageEnvelopeE"
   ]
  },
  {
   "alignment" : 1,
   "linker_set_key" : "_ZTIN7android6traitsINS_6Looper8ResponseEEE",
   "name" : "android::traits<android::Looper::Response>",
   "size" : 1,
   "source_file" : "system/core/libutils/include/utils/TypeHelpers.h",
   "template_args" :
   [
    "_ZTIN7android6Looper8ResponseE"
   ]
  },
  {
   "alignment" : 8,
   "fields" :
   [
    {
     "access" : "private",
     "field_name" : "mFileName",
     "referenced_type" : "_ZTIPc"
    },
    {
     "access" : "private",
     "field_name" : "mBasePtr",
     "field_offset" : 64,
     "referenced_type" : "_ZTIPv"
    },
    {
     "access" : "private",
     "field_name" : "mBaseLength",
     "field_offset" : 128,
     "referenced_type" : "_ZTIm"
    },
    {
     "access" : "private",
     "field_name" : "mDataOffset",
     "field_offset" : 192,
     "referenced_type" : "_ZTIl"
    },
    {
     "access" : "private",
     "field_name" : "mDataPtr",
     "field_offset" : 256,
     "referenced_type" : "_ZTIPv"
    },
    {
     "access" : "private",
     "field_name" : "mDataLength",
     "field_offset" : 320,
     "referenced_type" : "_ZTIm"
    }
   ],
   "linker_set_key" : "_ZTIN7android7FileMapE",
   "name" : "android::FileMap",
   "record_kind" : "class",
   "size" : 48,
   "source_file" : "system/core/libutils/include/utils/FileMap.h"
  },
  {
   "alignment" : 4,
   "fields" :
   [
    {
     "field_name" : "what",
     "referenced_type" : "_ZTIi"
    }
   ],
   "linker_set_key" : "_ZTIN7android7MessageE",
   "name" : "android::Message",
   "size" : 4,
   "source_file" : "system/core/libutils/include/utils/Looper.h"
  },
  {
   "alignment" : 8,
   "linker_set_key" : "_ZTIN7android7PrinterE",
   "name" : "android::Printer",
   "record_kind" : "class",
   "size" : 8,
   "source_file" : "system/core/libutils/include/utils/Printer.h",
   "vtable_components" :
   [
    {
     "kind" : "offset_to_top"
    },
    {
     "kind" : "rtti",
     "mangled_component_name" : "_ZTIN7android7PrinterE"
    },
    {
     "is_pure" : true,
     "mangled_component_name" : "_ZN7android7Printer9printLineEPKc"
    },
    {
     "mangled_component_name" : "_ZN7android7Printer15printFormatLineEPKcz"
    },
    {
     "kind" : "complete_dtor_pointer",
     "mangled_component_name" : "_ZN7android7PrinterD1Ev"
    },
    {
     "kind" : "deleting_dtor_pointer",
     "mangled_component_name" : "_ZN7android7PrinterD0Ev"
    }
   ]
  },
  {
   "alignment" : 1,
   "linker_set_key" : "_ZTIN7android7RefBase12weakref_typeE",
   "name" : "android::RefBase::weakref_type",
   "record_kind" : "class",
   "size" : 1,
   "source_file" : "system/core/libutils/include/utils/RefBase.h"
  },
  {
   "alignment" : 1,
   "linker_set_key" : "_ZTIN7android7RefBase12weakref_typeE",
   "name" : "android::RefBase::weakref_type",
   "record_kind" : "class",
   "self_type" : "_ZTIN7android7RefBase12weakref_typeE#ODR:out/soong/.intermediates/system/core/libutils/binder/libutils_binder/android_vendor_arm64_armv8-a_cortex-a53_static_afdo-libutils/obj/system/core/libutils/binder/RefBase.sdump",
   "size" : 1,
   "source_file" : "system/core/libutils/binder/include/utils/RefBase.h"
  },
  {
   "alignment" : 8,
   "fields" :
   [
    {
     "access" : "private",
     "field_name" : "mRefs",
     "field_offset" : 64,
     "referenced_type" : "_ZTIKPN7android7RefBase12weakref_implE"
    }
   ],
   "linker_set_key" : "_ZTIN7android7RefBaseE",
   "name" : "android::RefBase",
   "record_kind" : "class",
   "size" : 16,
   "source_file" : "system/core/libutils/include/utils/RefBase.h",
   "vtable_components" :
   [
    {
     "kind" : "offset_to_top"
    },
    {
     "kind" : "rtti",
     "mangled_component_name" : "_ZTIN7android7RefBaseE"
    },
    {
     "kind" : "complete_dtor_pointer",
     "mangled_component_name" : "_ZN7android7RefBaseD1Ev"
    },
    {
     "kind" : "deleting_dtor_pointer",
     "mangled_component_name" : "_ZN7android7RefBaseD0Ev"
    },
    {
     "mangled_component_name" : "_ZN7android7RefBase10onFirstRefEv"
    },
    {
     "mangled_component_name" : "_ZN7android7RefBase15onLastStrongRefEPKv"
    },
    {
     "mangled_component_name" : "_ZN7android7RefBase20onIncStrongAttemptedEjPKv"
    },
    {
     "mangled_component_name" : "_ZN7android7RefBase13onLastWeakRefEPKv"
    }
   ]
  },
  {
   "alignment" : 8,
   "fields" :
   [
    {
     "access" : "private",
     "field_name" : "mRefs",
     "field_offset" : 64,
     "referenced_type" : "_ZTIKPN7android7RefBase12weakref_implE"
    }
   ],
   "linker_set_key" : "_ZTIN7android7RefBaseE",
   "name" : "android::RefBase",
   "record_kind" : "class",
   "self_type" : "_ZTIN7android7RefBaseE#ODR:out/soong/.intermediates/system/core/libutils/binder/libutils_binder/android_vendor_arm64_armv8-a_cortex-a53_static_afdo-libutils/obj/system/core/libutils/binder/RefBase.sdump",
   "size" : 16,
   "source_file" : "system/core/libutils/binder/include/utils/RefBase.h",
   "vtable_components" :
   [
    {
     "kind" : "offset_to_top"
    },
    {
     "kind" : "rtti",
     "mangled_component_name" : "_ZTIN7android7RefBaseE"
    },
    {
     "kind" : "complete_dtor_pointer",
     "mangled_component_name" : "_ZN7android7RefBaseD1Ev"
    },
    {
     "kind" : "deleting_dtor_pointer",
     "mangled_component_name" : "_ZN7android7RefBaseD0Ev"
    },
    {
     "mangled_component_name" : "_ZN7android7RefBase10onFirstRefEv"
    },
    {
     "mangled_component_name" : "_ZN7android7RefBase15onLastStrongRefEPKv"
    },
    {
     "mangled_component_name" : "_ZN7android7RefBase20onIncStrongAttemptedEjPKv"
    },
    {
     "mangled_component_name" : "_ZN7android7RefBase13onLastWeakRefEPKv"
    }
   ]
  },
  {
   "alignment" : 8,
   "fields" :
   [
    {
     "access" : "private",
     "field_name" : "mString",
     "referenced_type" : "_ZTIPKc"
    }
   ],
   "linker_set_key" : "_ZTIN7android7String8E",
   "name" : "android::String8",
   "record_kind" : "class",
   "size" : 8,
   "source_file" : "system/core/libutils/include/utils/String8.h"
  },
  {
   "alignment" : 8,
   "fields" :
   [
    {
     "access" : "private",
     "field_name" : "mString",
     "referenced_type" : "_ZTIPKc"
    }
   ],
   "linker_set_key" : "_ZTIN7android7String8E",
   "name" : "android::String8",
   "record_kind" : "class",
   "self_type" : "_ZTIN7android7String8E#ODR:out/soong/.intermediates/system/core/libutils/binder/libutils_binder/android_vendor_arm64_armv8-a_cortex-a53_static_afdo-libutils/obj/system/core/libutils/binder/RefBase.sdump",
   "size" : 8,
   "source_file" : "system/core/libutils/binder/include/utils/String8.h"
  },
  {
   "alignment" : 4,
   "fields" :
   [
    {
     "field_name" : "size",
     "referenced_type" : "_ZTIKj"
    },
    {
     "field_name" : "data",
     "field_offset" : 32,
     "referenced_type" : "_ZTIA1_Ds"
    }
   ],
   "linker_set_key" : "_ZTIN7android8String1610StaticDataILm1EEE",
   "name" : "android::String16::StaticData<1>",
   "size" : 8,
   "source_file" : "system/core/libutils/binder/include/utils/String16.h"
  },
  {
   "alignment" : 8,
   "fields" :
   [
    {
     "access" : "private",
     "field_name" : "mString",
     "referenced_type" : "_ZTIPKDs"
    }
   ],
   "linker_set_key" : "_ZTIN7android8String16E",
   "name" : "android::String16",
   "record_kind" : "class",
   "size" : 8,
   "source_file" : "system/core/libutils/binder/include/utils/String16.h"
  },
  {
   "alignment" : 4,
   "fields" :
   [
    {
     "access" : "private",
     "field_name" : "mCond",
     "referenced_type" : "_ZTI14pthread_cond_t"
    }
   ],
   "linker_set_key" : "_ZTIN7android9ConditionE",
   "name" : "android::Condition",
   "record_kind" : "class",
   "size" : 48,
   "source_file" : "system/core/libutils/include/utils/Condition.h"
  },
  {
   "alignment" : 8,
   "base_specifiers" :
   [
    {
     "referenced_type" : "_ZTIN7android7PrinterE"
    }
   ],
   "fields" :
   [
    {
     "access" : "private",
     "field_name" : "mFd",
     "field_offset" : 64,
     "referenced_type" : "_ZTIi"
    },
    {
     "access" : "private",
     "field_name" : "mIndent",
     "field_offset" : 96,
     "referenced_type" : "_ZTIj"
    },
    {
     "access" : "private",
     "field_name" : "mPrefix",
     "field_offset" : 128,
     "referenced_type" : "_ZTIPKc"
    },
    {
     "access" : "private",
     "field_name" : "mFormatString",
     "field_offset" : 192,
     "referenced_type" : "_ZTIA20_c"
    }
   ],
   "linker_set_key" : "_ZTIN7android9FdPrinterE",
   "name" : "android::FdPrinter",
   "record_kind" : "class",
   "size" : 48,
   "source_file" : "system/core/libutils/include/utils/Printer.h",
   "vtable_components" :
   [
    {
     "kind" : "offset_to_top"
    },
    {
     "kind" : "rtti",
     "mangled_component_name" : "_ZTIN7android9FdPrinterE"
    },
    {
     "mangled_component_name" : "_ZN7android9FdPrinter9printLineEPKc"
    },
    {
     "mangled_component_name" : "_ZN7android7Printer15printFormatLineEPKcz"
    },
    {
     "kind" : "complete_dtor_pointer",
     "mangled_component_name" : "_ZN7android9FdPrinterD1Ev"
    },
    {
     "kind" : "deleting_dtor_pointer",
     "mangled_component_name" : "_ZN7android9FdPrinterD0Ev"
    }
   ]
  },
  {
   "alignment" : 8,
   "fields" :
   [
    {
     "access" : "private",
     "field_name" : "mName",
     "referenced_type" : "_ZTIPKc"
    },
    {
     "access" : "private",
     "field_name" : "mClock",
     "field_offset" : 64,
     "referenced_type" : "_ZTIi"
    },
    {
     "access" : "private",
     "field_name" : "mStartTime",
     "field_offset" : 128,
     "referenced_type" : "_ZTIl"
    }
   ],
   "linker_set_key" : "_ZTIN7android9StopWatchE",
   "name" : "android::StopWatch",
   "record_kind" : "class",
   "size" : 24,
   "source_file" : "system/core/libutils/include/utils/StopWatch.h"
  },
  {
   "alignment" : 8,
   "fields" :
   [
    {
     "access" : "private",
     "field_name" : "mFilename",
     "referenced_type" : "_ZTIN7android7String8E"
    },
    {
     "access" : "private",
     "field_name" : "mFileMap",
     "field_offset" : 64,
     "referenced_type" : "_ZTIPN7android7FileMapE"
    },
    {
     "access" : "private",
     "field_name" : "mBuffer",
     "field_offset" : 128,
     "referenced_type" : "_ZTIPc"
    },
    {
     "access" : "private",
     "field_name" : "mOwnBuffer",
     "field_offset" : 192,
     "referenced_type" : "_ZTIb"
    },
    {
     "access" : "private",
     "field_name" : "mLength",
     "field_offset" : 256,
     "referenced_type" : "_ZTIm"
    },
    {
     "access" : "private",
     "field_name" : "mCurrent",
     "field_offset" : 320,
     "referenced_type" : "_ZTIPKc"
    },
    {
     "access" : "private",
     "field_name" : "mLineNumber",
     "field_offset" : 384,
     "referenced_type" : "_ZTIi"
    }
   ],
   "linker_set_key" : "_ZTIN7android9TokenizerE",
   "name" : "android::Tokenizer",
   "record_kind" : "class",
   "size" : 56,
   "source_file" : "system/core/libutils/include/utils/Tokenizer.h"
  },
  {
   "alignment" : 4,
   "fields" :
   [
    {
     "field_name" : "buf",
     "referenced_type" : "_ZTIA5121_h"
    },
    {
     "field_name" : "entry",
     "referenced_type" : "_ZTI12logger_entry"
    }
   ],
   "is_anonymous" : true,
   "linker_set_key" : "_ZTIN7log_msgUt_E",
   "name" : "log_msg::(anonymous)",
   "record_kind" : "union",
   "size" : 5124,
   "source_file" : "system/logging/liblog/include_vndk/log/log_read.h"
  }
 ],
 "rvalue_reference_types" :
 [
  {
   "alignment" : 8,
   "linker_set_key" : "_ZTION7android2spINS_12NativeHandleEEE",
   "name" : "android::sp<android::NativeHandle> &&",
   "referenced_type" : "_ZTIN7android2spINS_12NativeHandleEEE",
   "size" : 8,
   "source_file" : "system/core/libutils/include/utils/StrongPointer.h"
  },
  {
   "alignment" : 8,
   "linker_set_key" : "_ZTION7android2spINS_14MessageHandlerEEE",
   "name" : "android::sp<android::MessageHandler> &&",
   "referenced_type" : "_ZTIN7android2spINS_14MessageHandlerEEE",
   "size" : 8,
   "source_file" : "system/core/libutils/include/utils/StrongPointer.h"
  },
  {
   "alignment" : 8,
   "linker_set_key" : "_ZTION7android2spINS_20SimpleLooperCallbackEEE",
   "name" : "android::sp<android::SimpleLooperCallback> &&",
   "referenced_type" : "_ZTIN7android2spINS_20SimpleLooperCallbackEEE",
   "size" : 8,
   "source_file" : "system/core/libutils/include/utils/StrongPointer.h"
  },
  {
   "alignment" : 8,
   "linker_set_key" : "_ZTION7android2spINS_6LooperEEE",
   "name" : "android::sp<android::Looper> &&",
   "referenced_type" : "_ZTIN7android2spINS_6LooperEEE",
   "size" : 8,
   "source_file" : "system/core/libutils/include/utils/StrongPointer.h"
  },
  {
   "alignment" : 8,
   "linker_set_key" : "_ZTION7android2spINS_6ThreadEEE",
   "name" : "android::sp<android::Thread> &&",
   "referenced_type" : "_ZTIN7android2spINS_6ThreadEEE",
   "size" : 8,
   "source_file" : "system/core/libutils/include/utils/StrongPointer.h"
  },
  {
   "alignment" : 8,
   "linker_set_key" : "_ZTION7android4base14unique_fd_implINS0_13DefaultCloserEEE",
   "name" : "android::base::unique_fd_impl<android::base::DefaultCloser> &&",
   "referenced_type" : "_ZTIN7android4base14unique_fd_implINS0_13DefaultCloserEEE",
   "size" : 8,
   "source_file" : "system/libbase/include/android-base/unique_fd.h"
  },
  {
   "alignment" : 8,
   "linker_set_key" : "_ZTION7android7FileMapE",
   "name" : "android::FileMap &&",
   "referenced_type" : "_ZTIN7android7FileMapE",
   "size" : 8,
   "source_file" : "system/core/libutils/include/utils/FileMap.h"
  },
  {
   "alignment" : 8,
   "linker_set_key" : "_ZTION7android8String16E",
   "name" : "android::String16 &&",
   "referenced_type" : "_ZTIN7android8String16E",
   "size" : 8,
   "source_file" : "system/core/libutils/binder/include/utils/String16.h"
  }
 ]
}
